libtorrent-rasterbar.so.10:_ZN10libtorrent10alert_nameEi
libtorrent-rasterbar.so.10:_ZN10libtorrent10apply_packEPKNS_13settings_packERNS_3aux16session_settingsEPNS3_12session_implE
libtorrent-rasterbar.so.10:_ZN10libtorrent10bw_request16assign_bandwidthEv
libtorrent-rasterbar.so.10:_ZN10libtorrent10bw_requestC1ESt10shared_ptrINS_16bandwidth_socketEEii
libtorrent-rasterbar.so.10:_ZN10libtorrent10bw_requestC2ESt10shared_ptrINS_16bandwidth_socketEEii
libtorrent-rasterbar.so.10:_ZN10libtorrent10calc_bytesERKNS_12file_storageERKNS_11piece_countE
libtorrent-rasterbar.so.10:_ZN10libtorrent10export_keyERKN5boost14multiprecision6numberINS1_8backends15cpp_int_backendILj768ELj768ELNS1_16cpp_integer_typeE0ELNS1_18cpp_int_check_typeE0EvEELNS1_26expression_template_optionE0EEE
libtorrent-rasterbar.so.10:_ZN10libtorrent10file_entryC1Ev
libtorrent-rasterbar.so.10:_ZN10libtorrent10file_entryC2Ev
libtorrent-rasterbar.so.10:_ZN10libtorrent10file_entryD1Ev
libtorrent-rasterbar.so.10:_ZN10libtorrent10file_entryD2Ev
libtorrent-rasterbar.so.10:_ZN10libtorrent10hash_valueERKNS_14torrent_handleE
libtorrent-rasterbar.so.10:_ZN10libtorrent10is_i2p_urlERKNSt7__cxx1112basic_stringIcSt11char_traitsIcESaIcEEE
libtorrent-rasterbar.so.10:_ZN10libtorrent10lazy_entry11dict_appendEPKc
libtorrent-rasterbar.so.10:_ZN10libtorrent10lazy_entry11list_appendEv
libtorrent-rasterbar.so.10:_ZN10libtorrent10lazy_entry16construct_stringEPKci
libtorrent-rasterbar.so.10:_ZN10libtorrent10lazy_entry3popEv
libtorrent-rasterbar.so.10:_ZN10libtorrent10lazy_entry5clearEv
libtorrent-rasterbar.so.10:_ZN10libtorrent10lazy_entry9dict_findEPKc
libtorrent-rasterbar.so.10:_ZN10libtorrent10lazy_entry9dict_findERKNSt7__cxx1112basic_stringIcSt11char_traitsIcESaIcEEE
libtorrent-rasterbar.so.10:_ZN10libtorrent10lazy_entryC1EOS0_
libtorrent-rasterbar.so.10:_ZN10libtorrent10lazy_entryC2EOS0_
libtorrent-rasterbar.so.10:_ZN10libtorrent10lazy_entryaSEOS0_
libtorrent-rasterbar.so.10:_ZN10libtorrent10peer_alertC1ERNS_3aux15stack_allocatorERKNS_14torrent_handleERKN5boost4asio2ip14basic_endpointINS9_3tcpEEERKNS_8digest32ILl160EEE
libtorrent-rasterbar.so.10:_ZN10libtorrent10peer_alertC2ERNS_3aux15stack_allocatorERKNS_14torrent_handleERKN5boost4asio2ip14basic_endpointINS9_3tcpEEERKNS_8digest32ILl160EEE
libtorrent-rasterbar.so.10:_ZN10libtorrent10peer_class16set_upload_limitEi
libtorrent-rasterbar.so.10:_ZN10libtorrent10peer_class18set_download_limitEi
libtorrent-rasterbar.so.10:_ZN10libtorrent10peer_class8set_infoEPKNS_15peer_class_infoE
libtorrent-rasterbar.so.10:_ZN10libtorrent10read_untilB5cxx11ERPKccS1_
libtorrent-rasterbar.so.10:_ZN10libtorrent10remove_allERKNSt7__cxx1112basic_stringIcSt11char_traitsIcESaIcEEERN5boost6system10error_codeE
libtorrent-rasterbar.so.10:_ZN10libtorrent10stat_cache12get_filesizeENS_3aux14strong_typedefIiNS1_14file_index_tagEvEERKNS_12file_storageERKNSt7__cxx1112basic_stringIcSt11char_traitsIcESaIcEEERN5boost6system10error_codeE
libtorrent-rasterbar.so.10:_ZN10libtorrent10stat_cache14set_cache_implENS_3aux14strong_typedefIiNS1_14file_index_tagEvEEl
libtorrent-rasterbar.so.10:_ZN10libtorrent10stat_cache14set_error_implENS_3aux14strong_typedefIiNS1_14file_index_tagEvEERKN5boost6system10error_codeE
libtorrent-rasterbar.so.10:_ZN10libtorrent10stat_cache5clearEv
libtorrent-rasterbar.so.10:_ZN10libtorrent10stat_cache7reserveEi
libtorrent-rasterbar.so.10:_ZN10libtorrent10stat_cache9add_errorERKN5boost6system10error_codeE
libtorrent-rasterbar.so.10:_ZN10libtorrent10stat_cache9set_cacheENS_3aux14strong_typedefIiNS1_14file_index_tagEvEEl
libtorrent-rasterbar.so.10:_ZN10libtorrent10stat_cache9set_dirtyENS_3aux14strong_typedefIiNS1_14file_index_tagEvEE
libtorrent-rasterbar.so.10:_ZN10libtorrent10stat_cache9set_errorENS_3aux14strong_typedefIiNS1_14file_index_tagEvEERKN5boost6system10error_codeE
libtorrent-rasterbar.so.10:_ZN10libtorrent10stat_cacheC1Ev
libtorrent-rasterbar.so.10:_ZN10libtorrent10stat_cacheC2Ev
libtorrent-rasterbar.so.10:_ZN10libtorrent10stat_cacheD1Ev
libtorrent-rasterbar.so.10:_ZN10libtorrent10stat_cacheD2Ev
libtorrent-rasterbar.so.10:_ZN10libtorrent10udp_socket13send_hostnameEPKciNS_4spanIS1_EERN5boost6system10error_codeENS_5flags13bitfield_flagIhNS_18udp_send_flags_tagEvEE
libtorrent-rasterbar.so.10:_ZN10libtorrent10udp_socket18set_proxy_settingsERKNS_3aux14proxy_settingsERNS_13alert_managerE
libtorrent-rasterbar.so.10:_ZN10libtorrent10udp_socket4bindERKN5boost4asio2ip14basic_endpointINS3_3udpEEERNS1_6system10error_codeE
libtorrent-rasterbar.so.10:_ZN10libtorrent10udp_socket4openERKN5boost4asio2ip3udpERNS1_6system10error_codeE
libtorrent-rasterbar.so.10:_ZN10libtorrent10udp_socket4readENS_4spanINS0_6packetEEERN5boost6system10error_codeE
libtorrent-rasterbar.so.10:_ZN10libtorrent10udp_socket4sendERKN5boost4asio2ip14basic_endpointINS3_3udpEEENS_4spanIKcEERNS1_6system10error_codeENS_5flags13bitfield_flagIhNS_18udp_send_flags_tagEvEE
libtorrent-rasterbar.so.10:_ZN10libtorrent10udp_socket4wrapEPKciNS_4spanIS1_EERN5boost6system10error_codeENS_5flags13bitfield_flagIhNS_18udp_send_flags_tagEvEE
libtorrent-rasterbar.so.10:_ZN10libtorrent10udp_socket4wrapERKN5boost4asio2ip14basic_endpointINS3_3udpEEENS_4spanIKcEERNS1_6system10error_codeENS_5flags13bitfield_flagIhNS_18udp_send_flags_tagEvEE
libtorrent-rasterbar.so.10:_ZN10libtorrent10udp_socket5closeEv
libtorrent-rasterbar.so.10:_ZN10libtorrent10udp_socket6unwrapERN5boost4asio2ip14basic_endpointINS3_3udpEEERNS_4spanIcEE
libtorrent-rasterbar.so.10:_ZN10libtorrent10udp_socketC1ERN5boost4asio10io_contextENS_3aux20listen_socket_handleE
libtorrent-rasterbar.so.10:_ZN10libtorrent10udp_socketC2ERN5boost4asio10io_contextENS_3aux20listen_socket_handleE
libtorrent-rasterbar.so.10:_ZN10libtorrent10url_randomENS_4spanIcEE
libtorrent-rasterbar.so.10:_ZN10libtorrent10utp_stream10do_connectERKN5boost4asio2ip14basic_endpointINS3_3tcpEEE
libtorrent-rasterbar.so.10:_ZN10libtorrent10utp_stream10issue_readEv
libtorrent-rasterbar.so.10:_ZN10libtorrent10utp_stream10on_connectEPvRKN5boost6system10error_codeEb
libtorrent-rasterbar.so.10:_ZN10libtorrent10utp_stream11issue_writeEv
libtorrent-rasterbar.so.10:_ZN10libtorrent10utp_stream15add_read_bufferEPvm
libtorrent-rasterbar.so.10:_ZN10libtorrent10utp_stream15cancel_handlersERKN5boost6system10error_codeE
libtorrent-rasterbar.so.10:_ZN10libtorrent10utp_stream15on_close_reasonEPvNS_14close_reason_tE
libtorrent-rasterbar.so.10:_ZN10libtorrent10utp_stream16add_write_bufferEPKvm
libtorrent-rasterbar.so.10:_ZN10libtorrent10utp_stream16get_close_reasonEv
libtorrent-rasterbar.so.10:_ZN10libtorrent10utp_stream16set_close_reasonENS_14close_reason_tE
libtorrent-rasterbar.so.10:_ZN10libtorrent10utp_stream4bindERKN5boost4asio2ip14basic_endpointINS3_3tcpEEERNS1_6system10error_codeE
libtorrent-rasterbar.so.10:_ZN10libtorrent10utp_stream5closeEv
libtorrent-rasterbar.so.10:_ZN10libtorrent10utp_stream7on_readEPvmRKN5boost6system10error_codeEb
libtorrent-rasterbar.so.10:_ZN10libtorrent10utp_stream8get_implEv
libtorrent-rasterbar.so.10:_ZN10libtorrent10utp_stream8on_writeEPvmRKN5boost6system10error_codeEb
libtorrent-rasterbar.so.10:_ZN10libtorrent10utp_stream8set_implEPNS_15utp_socket_implE
libtorrent-rasterbar.so.10:_ZN10libtorrent10utp_stream9read_someEb
libtorrent-rasterbar.so.10:_ZN10libtorrent10utp_streamC1ERN5boost4asio10io_contextE
libtorrent-rasterbar.so.10:_ZN10libtorrent10utp_streamC2ERN5boost4asio10io_contextE
libtorrent-rasterbar.so.10:_ZN10libtorrent10utp_streamD1Ev
libtorrent-rasterbar.so.10:_ZN10libtorrent10utp_streamD2Ev
libtorrent-rasterbar.so.10:_ZN10libtorrent11append_pathERNSt7__cxx1112basic_stringIcSt11char_traitsIcESaIcEEEN5boost17basic_string_viewIcS3_EE
libtorrent-rasterbar.so.10:_ZN10libtorrent11assert_failEPKciS1_S1_S1_i
libtorrent-rasterbar.so.10:_ZN10libtorrent11block_cache10find_pieceEPKNS_11disk_io_jobE
libtorrent-rasterbar.so.10:_ZN10libtorrent11block_cache10find_pieceEPNS_17storage_interfaceENS_3aux14strong_typedefIiNS3_15piece_index_tagEvEE
libtorrent-rasterbar.so.10:_ZN10libtorrent11block_cache10free_blockEPNS_18cached_piece_entryEi
libtorrent-rasterbar.so.10:_ZN10libtorrent11block_cache11abort_dirtyEPNS_18cached_piece_entryE
libtorrent-rasterbar.so.10:_ZN10libtorrent11block_cache11erase_pieceEPNS_18cached_piece_entryE
libtorrent-rasterbar.so.10:_ZN10libtorrent11block_cache11evict_pieceEPNS_18cached_piece_entryERNS_9tailqueueINS_11disk_io_jobEEENS0_13eviction_modeE
libtorrent-rasterbar.so.10:_ZN10libtorrent11block_cache12set_settingsERKNS_3aux16session_settingsE
libtorrent-rasterbar.so.10:_ZN10libtorrent11block_cache13insert_blocksEPNS_18cached_piece_entryEiNS_4spanIKNS3_IcEEEEPNS_11disk_io_jobEi
libtorrent-rasterbar.so.10:_ZN10libtorrent11block_cache13move_to_ghostEPNS_18cached_piece_entryE
libtorrent-rasterbar.so.10:_ZN10libtorrent11block_cache13reclaim_blockEPNS_17storage_interfaceERKNS_3aux21block_cache_referenceE
libtorrent-rasterbar.so.10:_ZN10libtorrent11block_cache14allocate_pieceEPKNS_11disk_io_jobEt
libtorrent-rasterbar.so.10:_ZN10libtorrent11block_cache14blocks_flushedEPNS_18cached_piece_entryEPKii
libtorrent-rasterbar.so.10:_ZN10libtorrent11block_cache15add_dirty_blockEPNS_11disk_io_jobEb
libtorrent-rasterbar.so.10:_ZN10libtorrent11block_cache15copy_from_pieceEPNS_18cached_piece_entryEPNS_11disk_io_jobERNS_26buffer_allocator_interfaceEb
libtorrent-rasterbar.so.10:_ZN10libtorrent11block_cache16drain_piece_bufsERNS_18cached_piece_entryERSt6vectorIPcSaIS4_EE
libtorrent-rasterbar.so.10:_ZN10libtorrent11block_cache16maybe_free_pieceEPNS_18cached_piece_entryE
libtorrent-rasterbar.so.10:_ZN10libtorrent11block_cache16try_evict_blocksEiPNS_18cached_piece_entryE
libtorrent-rasterbar.so.10:_ZN10libtorrent11block_cache17mark_for_evictionEPNS_18cached_piece_entryENS0_13eviction_modeE
libtorrent-rasterbar.so.10:_ZN10libtorrent11block_cache18dec_block_refcountEPNS_18cached_piece_entryEii
libtorrent-rasterbar.so.10:_ZN10libtorrent11block_cache18inc_block_refcountEPNS_18cached_piece_entryEii
libtorrent-rasterbar.so.10:_ZN10libtorrent11block_cache18update_cache_stateEPNS_18cached_piece_entryE
libtorrent-rasterbar.so.10:_ZN10libtorrent11block_cache22try_evict_one_volatileEv
libtorrent-rasterbar.so.10:_ZN10libtorrent11block_cache5clearERNS_9tailqueueINS_11disk_io_jobEEE
libtorrent-rasterbar.so.10:_ZN10libtorrent11block_cache8bump_lruEPNS_18cached_piece_entryE
libtorrent-rasterbar.so.10:_ZN10libtorrent11block_cache8try_readEPNS_11disk_io_jobERNS_26buffer_allocator_interfaceEb
libtorrent-rasterbar.so.10:_ZN10libtorrent11block_cache9cache_hitEPNS_18cached_piece_entryEib
libtorrent-rasterbar.so.10:_ZN10libtorrent11block_cacheC1ERN5boost4asio10io_contextERKSt8functionIFvvEE
libtorrent-rasterbar.so.10:_ZN10libtorrent11block_cacheC2ERN5boost4asio10io_contextERKSt8functionIFvvEE
libtorrent-rasterbar.so.10:_ZN10libtorrent11block_cacheD1Ev
libtorrent-rasterbar.so.10:_ZN10libtorrent11block_cacheD2Ev
libtorrent-rasterbar.so.10:_ZN10libtorrent11disk_io_job13call_callbackEv
libtorrent-rasterbar.so.10:_ZN10libtorrent11disk_io_job9completedEPKNS_18cached_piece_entryE
libtorrent-rasterbar.so.10:_ZN10libtorrent11disk_io_jobC1Ev
libtorrent-rasterbar.so.10:_ZN10libtorrent11disk_io_jobC2Ev
libtorrent-rasterbar.so.10:_ZN10libtorrent11enum_routesERN5boost4asio10io_contextERNS0_6system10error_codeE
libtorrent-rasterbar.so.10:_ZN10libtorrent11escape_pathB5cxx11EN5boost17basic_string_viewIcSt11char_traitsIcEEE
libtorrent-rasterbar.so.10:_ZN10libtorrent11external_ipC1ERKN5boost4asio2ip7addressES6_S6_S6_
libtorrent-rasterbar.so.10:_ZN10libtorrent11external_ipC2ERKN5boost4asio2ip7addressES6_S6_S6_
libtorrent-rasterbar.so.10:_ZN10libtorrent11fingerprintC1EPKciiii
libtorrent-rasterbar.so.10:_ZN10libtorrent11fingerprintC2EPKciiii
libtorrent-rasterbar.so.10:_ZN10libtorrent11get_gatewayERKNS_12ip_interfaceENS_4spanIKNS_8ip_routeEEE
libtorrent-rasterbar.so.10:_ZN10libtorrent11gzip_errors15make_error_codeENS0_15error_code_enumE
libtorrent-rasterbar.so.10:_ZN10libtorrent11http_parser18parse_chunk_headerENS_4spanIKcEEPlPi
libtorrent-rasterbar.so.10:_ZN10libtorrent11http_parser5resetEv
libtorrent-rasterbar.so.10:_ZN10libtorrent11http_parser8incomingENS_4spanIKcEERb
libtorrent-rasterbar.so.10:_ZN10libtorrent11http_parserC1Ei
libtorrent-rasterbar.so.10:_ZN10libtorrent11http_parserC2Ei
libtorrent-rasterbar.so.10:_ZN10libtorrent11http_parserD1Ev
libtorrent-rasterbar.so.10:_ZN10libtorrent11http_parserD2Ev
libtorrent-rasterbar.so.10:_ZN10libtorrent11is_completeEN5boost17basic_string_viewIcSt11char_traitsIcEEE
libtorrent-rasterbar.so.10:_ZN10libtorrent11is_loopbackERKN5boost4asio2ip7addressE
libtorrent-rasterbar.so.10:_ZN10libtorrent11is_redirectEi
libtorrent-rasterbar.so.10:_ZN10libtorrent11lsplit_pathEN5boost17basic_string_viewIcSt11char_traitsIcEEE
libtorrent-rasterbar.so.10:_ZN10libtorrent11lsplit_pathEN5boost17basic_string_viewIcSt11char_traitsIcEEEm
libtorrent-rasterbar.so.10:_ZN10libtorrent11parent_pathERKNSt7__cxx1112basic_stringIcSt11char_traitsIcESaIcEEE
libtorrent-rasterbar.so.10:_ZN10libtorrent11port_filter8add_ruleEttj
libtorrent-rasterbar.so.10:_ZN10libtorrent11print_entryB5cxx11ERKNS_10lazy_entryEbi
libtorrent-rasterbar.so.10:_ZN10libtorrent11print_entryB5cxx11ERKNS_12bdecode_nodeEbi
libtorrent-rasterbar.so.10:_ZN10libtorrent11rc4_handler16set_incoming_keyENS_4spanIKcEE
libtorrent-rasterbar.so.10:_ZN10libtorrent11rc4_handler16set_outgoing_keyENS_4spanIKcEE
libtorrent-rasterbar.so.10:_ZN10libtorrent11rc4_handler7decryptENS_4spanINS1_IcEEEE
libtorrent-rasterbar.so.10:_ZN10libtorrent11rc4_handler7encryptENS_4spanINS1_IcEEEE
libtorrent-rasterbar.so.10:_ZN10libtorrent11rc4_handlerC1Ev
libtorrent-rasterbar.so.10:_ZN10libtorrent11rc4_handlerC2Ev
libtorrent-rasterbar.so.10:_ZN10libtorrent11rsplit_pathEN5boost17basic_string_viewIcSt11char_traitsIcEEE
libtorrent-rasterbar.so.10:_ZN10libtorrent11socks_error15make_error_codeENS0_16socks_error_codeE
libtorrent-rasterbar.so.10:_ZN10libtorrent11stats_alertC1ERNS_3aux15stack_allocatorERKNS_14torrent_handleEiRKNS_4statE
libtorrent-rasterbar.so.10:_ZN10libtorrent11stats_alertC2ERNS_3aux15stack_allocatorERKNS_14torrent_handleEiRKNS_4statE
libtorrent-rasterbar.so.10:_ZN10libtorrent11upnp_errors15make_error_codeENS0_15error_code_enumE
libtorrent-rasterbar.so.10:_ZN10libtorrent12assert_printEPKcz
libtorrent-rasterbar.so.10:_ZN10libtorrent12base32decodeB5cxx11EN5boost17basic_string_viewIcSt11char_traitsIcEEE
libtorrent-rasterbar.so.10:_ZN10libtorrent12base32encodeB5cxx11EN5boost17basic_string_viewIcSt11char_traitsIcEEENS_5flags13bitfield_flagIhNS_23encode_string_flags_tagEvEE
libtorrent-rasterbar.so.10:_ZN10libtorrent12base64encodeERKNSt7__cxx1112basic_stringIcSt11char_traitsIcESaIcEEE
libtorrent-rasterbar.so.10:_ZN10libtorrent12bdecode_node24switch_underlying_bufferEPKc
libtorrent-rasterbar.so.10:_ZN10libtorrent12bdecode_node4swapERS0_
libtorrent-rasterbar.so.10:_ZN10libtorrent12bdecode_node5clearEv
libtorrent-rasterbar.so.10:_ZN10libtorrent12bdecode_node7reserveEi
libtorrent-rasterbar.so.10:_ZN10libtorrent12bdecode_nodeC1EOS0_
libtorrent-rasterbar.so.10:_ZN10libtorrent12bdecode_nodeC1EPKNS_6detail13bdecode_tokenEPKcii
libtorrent-rasterbar.so.10:_ZN10libtorrent12bdecode_nodeC1ERKS0_
libtorrent-rasterbar.so.10:_ZN10libtorrent12bdecode_nodeC2EOS0_
libtorrent-rasterbar.so.10:_ZN10libtorrent12bdecode_nodeC2EPKNS_6detail13bdecode_tokenEPKcii
libtorrent-rasterbar.so.10:_ZN10libtorrent12bdecode_nodeC2ERKS0_
libtorrent-rasterbar.so.10:_ZN10libtorrent12bdecode_nodeaSERKS0_
libtorrent-rasterbar.so.10:_ZN10libtorrent12combine_pathB5cxx11EN5boost17basic_string_viewIcSt11char_traitsIcEEES4_
libtorrent-rasterbar.so.10:_ZN10libtorrent12compare_pathERKNSt7__cxx1112basic_stringIcSt11char_traitsIcESaIcEEES7_
libtorrent-rasterbar.so.10:_ZN10libtorrent12ed25519_signEPhPKhlS2_S2_
libtorrent-rasterbar.so.10:_ZN10libtorrent12file_storage11rename_fileENS_3aux14strong_typedefIiNS1_14file_index_tagEvEERKNSt7__cxx1112basic_stringIcSt11char_traitsIcESaIcEEE
libtorrent-rasterbar.so.10:_ZN10libtorrent12file_storage12add_pad_fileEiRN9__gnu_cxx17__normal_iteratorIPNS_19internal_file_entryESt6vectorIS3_SaIS3_EEEERlRi
libtorrent-rasterbar.so.10:_ZN10libtorrent12file_storage12reorder_fileEii
libtorrent-rasterbar.so.10:_ZN10libtorrent12file_storage15add_file_borrowEN5boost17basic_string_viewIcSt11char_traitsIcEEERKNSt7__cxx1112basic_stringIcS4_SaIcEEElNS_5flags13bitfield_flagIhNS_14file_flags_tagEvEEPKclS5_
libtorrent-rasterbar.so.10:_ZN10libtorrent12file_storage15add_file_borrowEPKciRKNSt7__cxx1112basic_stringIcSt11char_traitsIcESaIcEEElNS_5flags13bitfield_flagIhNS_14file_flags_tagEvEES2_lN5boost17basic_string_viewIcS6_EE
libtorrent-rasterbar.so.10:_ZN10libtorrent12file_storage15get_or_add_pathEN5boost17basic_string_viewIcSt11char_traitsIcEEE
libtorrent-rasterbar.so.10:_ZN10libtorrent12file_storage17sanitize_symlinksEv
libtorrent-rasterbar.so.10:_ZN10libtorrent12file_storage17update_path_indexERNS_19internal_file_entryERKNSt7__cxx1112basic_stringIcSt11char_traitsIcESaIcEEEb
libtorrent-rasterbar.so.10:_ZN10libtorrent12file_storage20apply_pointer_offsetEl
libtorrent-rasterbar.so.10:_ZN10libtorrent12file_storage4swapERS0_
libtorrent-rasterbar.so.10:_ZN10libtorrent12file_storage7reserveEi
libtorrent-rasterbar.so.10:_ZN10libtorrent12file_storage8add_fileERKNS_10file_entryEPKc
libtorrent-rasterbar.so.10:_ZN10libtorrent12file_storage8add_fileERKNSt7__cxx1112basic_stringIcSt11char_traitsIcESaIcEEElNS_5flags13bitfield_flagIhNS_14file_flags_tagEvEElN5boost17basic_string_viewIcS4_EE
libtorrent-rasterbar.so.10:_ZN10libtorrent12file_storage8optimizeEiib
libtorrent-rasterbar.so.10:_ZN10libtorrent12file_storageC1EOS0_
libtorrent-rasterbar.so.10:_ZN10libtorrent12file_storageC1ERKS0_
libtorrent-rasterbar.so.10:_ZN10libtorrent12file_storageC1Ev
libtorrent-rasterbar.so.10:_ZN10libtorrent12file_storageC2EOS0_
libtorrent-rasterbar.so.10:_ZN10libtorrent12file_storageC2ERKS0_
libtorrent-rasterbar.so.10:_ZN10libtorrent12file_storageC2Ev
libtorrent-rasterbar.so.10:_ZN10libtorrent12file_storageD1Ev
libtorrent-rasterbar.so.10:_ZN10libtorrent12file_storageD2Ev
libtorrent-rasterbar.so.10:_ZN10libtorrent12file_storageaSERKS0_
libtorrent-rasterbar.so.10:_ZN10libtorrent12hash_addressERKN5boost4asio2ip7addressE
libtorrent-rasterbar.so.10:_ZN10libtorrent12i2p_categoryEv
libtorrent-rasterbar.so.10:_ZN10libtorrent12inflate_gzipENS_4spanIKcEERSt6vectorIcSaIcEEiRN5boost6system10error_codeE
libtorrent-rasterbar.so.10:_ZN10libtorrent12is_directoryERKNSt7__cxx1112basic_stringIcSt11char_traitsIcESaIcEEERN5boost6system10error_codeE
libtorrent-rasterbar.so.10:_ZN10libtorrent12is_ok_statusEi
libtorrent-rasterbar.so.10:_ZN10libtorrent12is_root_pathERKNSt7__cxx1112basic_stringIcSt11char_traitsIcESaIcEEE
libtorrent-rasterbar.so.10:_ZN10libtorrent12lazy_bdecodeEPKcS1_RNS_10lazy_entryERN5boost6system10error_codeEPiii
libtorrent-rasterbar.so.10:_ZN10libtorrent12lazy_bdecodeEPKcS1_RNS_10lazy_entryEii
libtorrent-rasterbar.so.10:_ZN10libtorrent12pcp_categoryEv
libtorrent-rasterbar.so.10:_ZN10libtorrent12piece_picker10clear_peerEPNS_12torrent_peerE
libtorrent-rasterbar.so.10:_ZN10libtorrent12piece_picker10lock_pieceENS_3aux14strong_typedefIiNS1_15piece_index_tagEvEE
libtorrent-rasterbar.so.10:_ZN10libtorrent12piece_picker11mark_as_padENS_11piece_blockE
libtorrent-rasterbar.so.10:_ZN10libtorrent12piece_picker11we_have_allEv
libtorrent-rasterbar.so.10:_ZN10libtorrent12piece_picker12dec_refcountENS_3aux14strong_typedefIiNS1_15piece_index_tagEvEEPKNS_12torrent_peerE
libtorrent-rasterbar.so.10:_ZN10libtorrent12piece_picker12dec_refcountERKNS_14typed_bitfieldINS_3aux14strong_typedefIiNS2_15piece_index_tagEvEEEEPKNS_12torrent_peerE
libtorrent-rasterbar.so.10:_ZN10libtorrent12piece_picker12inc_refcountENS_3aux14strong_typedefIiNS1_15piece_index_tagEvEEPKNS_12torrent_peerE
libtorrent-rasterbar.so.10:_ZN10libtorrent12piece_picker12inc_refcountERKNS_14typed_bitfieldINS_3aux14strong_typedefIiNS2_15piece_index_tagEvEEEEPKNS_12torrent_peerE
libtorrent-rasterbar.so.10:_ZN10libtorrent12piece_picker12piece_passedENS_3aux14strong_typedefIiNS1_15piece_index_tagEvEE
libtorrent-rasterbar.so.10:_ZN10libtorrent12piece_picker12we_dont_haveENS_3aux14strong_typedefIiNS1_15piece_index_tagEvEE
libtorrent-rasterbar.so.10:_ZN10libtorrent12piece_picker12write_failedENS_11piece_blockE
libtorrent-rasterbar.so.10:_ZN10libtorrent12piece_picker13find_dl_pieceENS_3aux14strong_typedefIhNS_12dl_queue_tagEvEENS2_IiNS1_15piece_index_tagEvEE
libtorrent-rasterbar.so.10:_ZN10libtorrent12piece_picker13restore_pieceENS_3aux14strong_typedefIiNS1_15piece_index_tagEvEE
libtorrent-rasterbar.so.10:_ZN10libtorrent12piece_picker14abort_downloadENS_11piece_blockEPNS_12torrent_peerE
libtorrent-rasterbar.so.10:_ZN10libtorrent12piece_picker14break_one_seedEv
libtorrent-rasterbar.so.10:_ZN10libtorrent12piece_picker15mark_as_writingENS_11piece_blockEPNS_12torrent_peerE
libtorrent-rasterbar.so.10:_ZN10libtorrent12piece_picker16dec_refcount_allEPKNS_12torrent_peerE
libtorrent-rasterbar.so.10:_ZN10libtorrent12piece_picker16inc_refcount_allEPKNS_12torrent_peerE
libtorrent-rasterbar.so.10:_ZN10libtorrent12piece_picker16mark_as_canceledENS_11piece_blockEPNS_12torrent_peerE
libtorrent-rasterbar.so.10:_ZN10libtorrent12piece_picker16mark_as_finishedENS_11piece_blockEPNS_12torrent_peerE
libtorrent-rasterbar.so.10:_ZN10libtorrent12piece_picker18add_download_pieceENS_3aux14strong_typedefIiNS1_15piece_index_tagEvEE
libtorrent-rasterbar.so.10:_ZN10libtorrent12piece_picker18set_piece_priorityENS_3aux14strong_typedefIiNS1_15piece_index_tagEvEENS2_IhNS_21download_priority_tagEvEE
libtorrent-rasterbar.so.10:_ZN10libtorrent12piece_picker18update_piece_stateEN9__gnu_cxx17__normal_iteratorIPNS0_17downloading_pieceESt6vectorIS3_SaIS3_EEEE
libtorrent-rasterbar.so.10:_ZN10libtorrent12piece_picker19mark_as_downloadingENS_11piece_blockEPNS_12torrent_peerENS_5flags13bitfield_flagItNS_18picker_options_tagEvEE
libtorrent-rasterbar.so.10:_ZN10libtorrent12piece_picker20erase_download_pieceEN9__gnu_cxx17__normal_iteratorIPNS0_17downloading_pieceESt6vectorIS3_SaIS3_EEEE
libtorrent-rasterbar.so.10:_ZN10libtorrent12piece_picker24mutable_blocks_for_pieceERKNS0_17downloading_pieceE
libtorrent-rasterbar.so.10:_ZN10libtorrent12piece_picker24record_downloading_pieceENS_3aux14strong_typedefIiNS1_15piece_index_tagEvEE
libtorrent-rasterbar.so.10:_ZN10libtorrent12piece_picker3addENS_3aux14strong_typedefIiNS1_15piece_index_tagEvEE
libtorrent-rasterbar.so.10:_ZN10libtorrent12piece_picker6removeEiNS_3aux14strong_typedefIiNS_16prio_index_tag_tEvEE
libtorrent-rasterbar.so.10:_ZN10libtorrent12piece_picker6resizeEiii
libtorrent-rasterbar.so.10:_ZN10libtorrent12piece_picker6updateEiNS_3aux14strong_typedefIiNS_16prio_index_tag_tEvEE
libtorrent-rasterbar.so.10:_ZN10libtorrent12piece_picker7shuffleEiNS_3aux14strong_typedefIiNS_16prio_index_tag_tEvEE
libtorrent-rasterbar.so.10:_ZN10libtorrent12piece_picker7we_haveENS_3aux14strong_typedefIiNS1_15piece_index_tagEvEE
libtorrent-rasterbar.so.10:_ZN10libtorrent12piece_pickerC1Eiii
libtorrent-rasterbar.so.10:_ZN10libtorrent12piece_pickerC2Eiii
libtorrent-rasterbar.so.10:_ZN10libtorrent12socks5_alertC1ERNS_3aux15stack_allocatorERKN5boost4asio2ip14basic_endpointINS6_3tcpEEENS_11operation_tERKNS4_6system10error_codeE
libtorrent-rasterbar.so.10:_ZN10libtorrent12socks5_alertC2ERNS_3aux15stack_allocatorERKN5boost4asio2ip14basic_endpointINS6_3tcpEEENS_11operation_tERKNS4_6system10error_codeE
libtorrent-rasterbar.so.10:_ZN10libtorrent12split_stringEN5boost17basic_string_viewIcSt11char_traitsIcEEEc
libtorrent-rasterbar.so.10:_ZN10libtorrent12stat_channel11second_tickEi
libtorrent-rasterbar.so.10:_ZN10libtorrent12strip_stringEN5boost17basic_string_viewIcSt11char_traitsIcEEE
libtorrent-rasterbar.so.10:_ZN10libtorrent12torrent_info11add_trackerERKNSt7__cxx1112basic_stringIcSt11char_traitsIcESaIcEEEi
libtorrent-rasterbar.so.10:_ZN10libtorrent12torrent_info11add_trackerERKNSt7__cxx1112basic_stringIcSt11char_traitsIcESaIcEEEiNS_14announce_entry14tracker_sourceE
libtorrent-rasterbar.so.10:_ZN10libtorrent12torrent_info11remap_filesERKNS_12file_storageE
libtorrent-rasterbar.so.10:_ZN10libtorrent12torrent_info12add_url_seedERKNSt7__cxx1112basic_stringIcSt11char_traitsIcESaIcEEES8_RKSt6vectorISt4pairIS6_S6_ESaISB_EE
libtorrent-rasterbar.so.10:_ZN10libtorrent12torrent_info13add_http_seedERKNSt7__cxx1112basic_stringIcSt11char_traitsIcESaIcEEES8_RKSt6vectorISt4pairIS6_S6_ESaISB_EE
libtorrent-rasterbar.so.10:_ZN10libtorrent12torrent_info13copy_on_writeEv
libtorrent-rasterbar.so.10:_ZN10libtorrent12torrent_info13set_web_seedsESt6vectorINS_14web_seed_entryESaIS2_EE
libtorrent-rasterbar.so.10:_ZN10libtorrent12torrent_info16add_merkle_nodesERKSt3mapIiNS_8digest32ILl160EEESt4lessIiESaISt4pairIKiS3_EEENS_3aux14strong_typedefIiNSD_15piece_index_tagEvEE
libtorrent-rasterbar.so.10:_ZN10libtorrent12torrent_info18parse_info_sectionERKNS_10lazy_entryERN5boost6system10error_codeE
libtorrent-rasterbar.so.10:_ZN10libtorrent12torrent_info18parse_info_sectionERKNS_12bdecode_nodeERN5boost6system10error_codeE
libtorrent-rasterbar.so.10:_ZN10libtorrent12torrent_info18parse_info_sectionERKNS_12bdecode_nodeERN5boost6system10error_codeEi
libtorrent-rasterbar.so.10:_ZN10libtorrent12torrent_info18parse_torrent_fileERKNS_12bdecode_nodeERN5boost6system10error_codeE
libtorrent-rasterbar.so.10:_ZN10libtorrent12torrent_info18parse_torrent_fileERKNS_12bdecode_nodeERN5boost6system10error_codeEi
libtorrent-rasterbar.so.10:_ZN10libtorrent12torrent_info20internal_set_commentEN5boost17basic_string_viewIcSt11char_traitsIcEEE
libtorrent-rasterbar.so.10:_ZN10libtorrent12torrent_info20internal_set_creatorEN5boost17basic_string_viewIcSt11char_traitsIcEEE
libtorrent-rasterbar.so.10:_ZN10libtorrent12torrent_info26internal_set_creation_dateEl
libtorrent-rasterbar.so.10:_ZN10libtorrent12torrent_info27resolve_duplicate_filenamesEv
libtorrent-rasterbar.so.10:_ZN10libtorrent12torrent_info32resolve_duplicate_filenames_slowEv
libtorrent-rasterbar.so.10:_ZN10libtorrent12torrent_info4swapERS0_
libtorrent-rasterbar.so.10:_ZN10libtorrent12torrent_infoC1ENS_4spanIKcEENS_11from_span_tE
libtorrent-rasterbar.so.10:_ZN10libtorrent12torrent_infoC1ENS_4spanIKcEERKNS_19load_torrent_limitsENS_11from_span_tE
libtorrent-rasterbar.so.10:_ZN10libtorrent12torrent_infoC1ENS_4spanIKcEERN5boost6system10error_codeENS_11from_span_tE
libtorrent-rasterbar.so.10:_ZN10libtorrent12torrent_infoC1ERKNS_10lazy_entryE
libtorrent-rasterbar.so.10:_ZN10libtorrent12torrent_infoC1ERKNS_10lazy_entryERN5boost6system10error_codeE
libtorrent-rasterbar.so.10:_ZN10libtorrent12torrent_infoC1ERKNS_12bdecode_nodeE
libtorrent-rasterbar.so.10:_ZN10libtorrent12torrent_infoC1ERKNS_12bdecode_nodeERKNS_19load_torrent_limitsE
libtorrent-rasterbar.so.10:_ZN10libtorrent12torrent_infoC1ERKNS_12bdecode_nodeERN5boost6system10error_codeE
libtorrent-rasterbar.so.10:_ZN10libtorrent12torrent_infoC1ERKNS_5entryE
libtorrent-rasterbar.so.10:_ZN10libtorrent12torrent_infoC1ERKNS_8digest32ILl160EEE
libtorrent-rasterbar.so.10:_ZN10libtorrent12torrent_infoC1ERKNSt7__cxx1112basic_stringIcSt11char_traitsIcESaIcEEE
libtorrent-rasterbar.so.10:_ZN10libtorrent12torrent_infoC1ERKNSt7__cxx1112basic_stringIcSt11char_traitsIcESaIcEEERKNS_19load_torrent_limitsE
libtorrent-rasterbar.so.10:_ZN10libtorrent12torrent_infoC1ERKNSt7__cxx1112basic_stringIcSt11char_traitsIcESaIcEEERN5boost6system10error_codeE
libtorrent-rasterbar.so.10:_ZN10libtorrent12torrent_infoC1ERKS0_
libtorrent-rasterbar.so.10:_ZN10libtorrent12torrent_infoC2ENS_4spanIKcEENS_11from_span_tE
libtorrent-rasterbar.so.10:_ZN10libtorrent12torrent_infoC2ENS_4spanIKcEERKNS_19load_torrent_limitsENS_11from_span_tE
libtorrent-rasterbar.so.10:_ZN10libtorrent12torrent_infoC2ENS_4spanIKcEERN5boost6system10error_codeENS_11from_span_tE
libtorrent-rasterbar.so.10:_ZN10libtorrent12torrent_infoC2ERKNS_10lazy_entryE
libtorrent-rasterbar.so.10:_ZN10libtorrent12torrent_infoC2ERKNS_10lazy_entryERN5boost6system10error_codeE
libtorrent-rasterbar.so.10:_ZN10libtorrent12torrent_infoC2ERKNS_12bdecode_nodeE
libtorrent-rasterbar.so.10:_ZN10libtorrent12torrent_infoC2ERKNS_12bdecode_nodeERKNS_19load_torrent_limitsE
libtorrent-rasterbar.so.10:_ZN10libtorrent12torrent_infoC2ERKNS_12bdecode_nodeERN5boost6system10error_codeE
libtorrent-rasterbar.so.10:_ZN10libtorrent12torrent_infoC2ERKNS_5entryE
libtorrent-rasterbar.so.10:_ZN10libtorrent12torrent_infoC2ERKNS_8digest32ILl160EEE
libtorrent-rasterbar.so.10:_ZN10libtorrent12torrent_infoC2ERKNSt7__cxx1112basic_stringIcSt11char_traitsIcESaIcEEE
libtorrent-rasterbar.so.10:_ZN10libtorrent12torrent_infoC2ERKNSt7__cxx1112basic_stringIcSt11char_traitsIcESaIcEEERKNS_19load_torrent_limitsE
libtorrent-rasterbar.so.10:_ZN10libtorrent12torrent_infoC2ERKNSt7__cxx1112basic_stringIcSt11char_traitsIcESaIcEEERN5boost6system10error_codeE
libtorrent-rasterbar.so.10:_ZN10libtorrent12torrent_infoC2ERKS0_
libtorrent-rasterbar.so.10:_ZN10libtorrent12torrent_infoD1Ev
libtorrent-rasterbar.so.10:_ZN10libtorrent12torrent_infoD2Ev
libtorrent-rasterbar.so.10:_ZN10libtorrent12torrent_peerC1EtbNS_5flags13bitfield_flagIhNS_21peer_source_flags_tagEvEE
libtorrent-rasterbar.so.10:_ZN10libtorrent12torrent_peerC2EtbNS_5flags13bitfield_flagIhNS_21peer_source_flags_tagEvEE
libtorrent-rasterbar.so.10:_ZN10libtorrent12unchoke_sortERSt6vectorIPNS_15peer_connectionESaIS2_EEiNSt6chrono8durationIlSt5ratioILl1ELl1000000000EEEERKNS_3aux16session_settingsE
libtorrent-rasterbar.so.10:_ZN10libtorrent13alert_manager12maybe_notifyEPNS_5alertE
libtorrent-rasterbar.so.10:_ZN10libtorrent13alert_manager13add_extensionESt10shared_ptrINS_6pluginEE
libtorrent-rasterbar.so.10:_ZN10libtorrent13alert_manager14wait_for_alertENSt6chrono8durationIlSt5ratioILl1ELl1000000000EEEE
libtorrent-rasterbar.so.10:_ZN10libtorrent13alert_manager19set_notify_functionERKSt8functionIFvvEE
libtorrent-rasterbar.so.10:_ZN10libtorrent13alert_manager26set_alert_queue_size_limitEi
libtorrent-rasterbar.so.10:_ZN10libtorrent13alert_manager7get_allERSt6vectorIPNS_5alertESaIS3_EE
libtorrent-rasterbar.so.10:_ZN10libtorrent13alert_managerC1EiNS_5flags13bitfield_flagIjNS_18alert_category_tagEvEE
libtorrent-rasterbar.so.10:_ZN10libtorrent13alert_managerC2EiNS_5flags13bitfield_flagIjNS_18alert_category_tagEvEE
libtorrent-rasterbar.so.10:_ZN10libtorrent13alert_managerD1Ev
libtorrent-rasterbar.so.10:_ZN10libtorrent13alert_managerD2Ev
libtorrent-rasterbar.so.10:_ZN10libtorrent13build_netmaskEii
libtorrent-rasterbar.so.10:_ZN10libtorrent13dht_log_alertC1ERNS_3aux15stack_allocatorENS0_12dht_module_tEPKcP13__va_list_tag
libtorrent-rasterbar.so.10:_ZN10libtorrent13dht_log_alertC2ERNS_3aux15stack_allocatorENS0_12dht_module_tEPKcP13__va_list_tag
libtorrent-rasterbar.so.10:_ZN10libtorrent13dht_pkt_alertC1ERNS_3aux15stack_allocatorENS_4spanIKcEENS0_11direction_tERKN5boost4asio2ip14basic_endpointINSA_3udpEEE
libtorrent-rasterbar.so.10:_ZN10libtorrent13dht_pkt_alertC2ERNS_3aux15stack_allocatorENS_4spanIKcEENS0_11direction_tERKN5boost4asio2ip14basic_endpointINSA_3udpEEE
libtorrent-rasterbar.so.10:_ZN10libtorrent13dht_put_alertC1ERNS_3aux15stack_allocatorERKNS_8digest32ILl160EEEi
libtorrent-rasterbar.so.10:_ZN10libtorrent13dht_put_alertC1ERNS_3aux15stack_allocatorERKSt5arrayIcLm32EERKS4_IcLm64EENSt7__cxx1112basic_stringIcSt11char_traitsIcESaIcEEEli
libtorrent-rasterbar.so.10:_ZN10libtorrent13dht_put_alertC2ERNS_3aux15stack_allocatorERKNS_8digest32ILl160EEEi
libtorrent-rasterbar.so.10:_ZN10libtorrent13dht_put_alertC2ERNS_3aux15stack_allocatorERKSt5arrayIcLm32EERKS4_IcLm64EENSt7__cxx1112basic_stringIcSt11char_traitsIcESaIcEEEli
libtorrent-rasterbar.so.10:_ZN10libtorrent13disk_job_pool12allocate_jobENS_12job_action_tE
libtorrent-rasterbar.so.10:_ZN10libtorrent13disk_job_pool8free_jobEPNS_11disk_io_jobE
libtorrent-rasterbar.so.10:_ZN10libtorrent13disk_job_pool9free_jobsEPPNS_11disk_io_jobEi
libtorrent-rasterbar.so.10:_ZN10libtorrent13disk_job_poolC1Ev
libtorrent-rasterbar.so.10:_ZN10libtorrent13disk_job_poolC2Ev
libtorrent-rasterbar.so.10:_ZN10libtorrent13disk_job_poolD1Ev
libtorrent-rasterbar.so.10:_ZN10libtorrent13disk_job_poolD2Ev
libtorrent-rasterbar.so.10:_ZN10libtorrent13escape_stringB5cxx11EN5boost17basic_string_viewIcSt11char_traitsIcEEE
libtorrent-rasterbar.so.10:_ZN10libtorrent13gzip_categoryEv
libtorrent-rasterbar.so.10:_ZN10libtorrent13http_categoryEv
libtorrent-rasterbar.so.10:_ZN10libtorrent13is_ip_addressERKNSt7__cxx1112basic_stringIcSt11char_traitsIcESaIcEEE
libtorrent-rasterbar.so.10:_ZN10libtorrent13is_link_localERKN5boost4asio2ip7addressE
libtorrent-rasterbar.so.10:_ZN10libtorrent13need_encodingEPKci
libtorrent-rasterbar.so.10:_ZN10libtorrent13packet_buffer6insertEjSt10unique_ptrINS_6packetENS_14packet_deleterEE
libtorrent-rasterbar.so.10:_ZN10libtorrent13packet_buffer6removeEj
libtorrent-rasterbar.so.10:_ZN10libtorrent13packet_buffer7reserveEj
libtorrent-rasterbar.so.10:_ZN10libtorrent13peer_priorityEN5boost4asio2ip14basic_endpointINS2_3tcpEEES5_
libtorrent-rasterbar.so.10:_ZN10libtorrent13portmap_alertC1ERNS_3aux15stack_allocatorENS1_14strong_typedefIiNS_16port_mapping_tagEvEEiNS_17portmap_transportENS_16portmap_protocolE
libtorrent-rasterbar.so.10:_ZN10libtorrent13portmap_alertC2ERNS_3aux15stack_allocatorENS1_14strong_typedefIiNS_16port_mapping_tagEvEEiNS_17portmap_transportENS_16portmap_protocolE
libtorrent-rasterbar.so.10:_ZN10libtorrent13print_addressB5cxx11ERKN5boost4asio2ip7addressE
libtorrent-rasterbar.so.10:_ZN10libtorrent13resolve_links5matchERKSt10shared_ptrIKNS_12torrent_infoEERKNSt7__cxx1112basic_stringIcSt11char_traitsIcESaIcEEE
libtorrent-rasterbar.so.10:_ZN10libtorrent13resolve_linksC1ESt10shared_ptrINS_12torrent_infoEE
libtorrent-rasterbar.so.10:_ZN10libtorrent13resolve_linksC2ESt10shared_ptrINS_12torrent_infoEE
libtorrent-rasterbar.so.10:_ZN10libtorrent13session_proxyC1EOS0_
libtorrent-rasterbar.so.10:_ZN10libtorrent13session_proxyC1ERKS0_
libtorrent-rasterbar.so.10:_ZN10libtorrent13session_proxyC1ESt10shared_ptrIN5boost4asio10io_contextEES1_ISt6threadES1_INS_3aux12session_implEE
libtorrent-rasterbar.so.10:_ZN10libtorrent13session_proxyC1Ev
libtorrent-rasterbar.so.10:_ZN10libtorrent13session_proxyC2EOS0_
libtorrent-rasterbar.so.10:_ZN10libtorrent13session_proxyC2ERKS0_
libtorrent-rasterbar.so.10:_ZN10libtorrent13session_proxyC2ESt10shared_ptrIN5boost4asio10io_contextEES1_ISt6threadES1_INS_3aux12session_implEE
libtorrent-rasterbar.so.10:_ZN10libtorrent13session_proxyC2Ev
libtorrent-rasterbar.so.10:_ZN10libtorrent13session_proxyD1Ev
libtorrent-rasterbar.so.10:_ZN10libtorrent13session_proxyD2Ev
libtorrent-rasterbar.so.10:_ZN10libtorrent13session_proxyaSEOS0_
libtorrent-rasterbar.so.10:_ZN10libtorrent13session_proxyaSERKS0_
libtorrent-rasterbar.so.10:_ZN10libtorrent13settings_pack5clearEi
libtorrent-rasterbar.so.10:_ZN10libtorrent13settings_pack5clearEv
libtorrent-rasterbar.so.10:_ZN10libtorrent13settings_pack7set_intEii
libtorrent-rasterbar.so.10:_ZN10libtorrent13settings_pack7set_strEiNSt7__cxx1112basic_stringIcSt11char_traitsIcESaIcEEE
libtorrent-rasterbar.so.10:_ZN10libtorrent13settings_pack8set_boolEib
libtorrent-rasterbar.so.10:_ZN10libtorrent13supports_ipv6Ev
libtorrent-rasterbar.so.10:_ZN10libtorrent13torrent_alertC1ERNS_3aux15stack_allocatorERKNS_14torrent_handleE
libtorrent-rasterbar.so.10:_ZN10libtorrent13torrent_alertC2ERNS_3aux15stack_allocatorERKNS_14torrent_handleE
libtorrent-rasterbar.so.10:_ZN10libtorrent13tracker_alertC1ERNS_3aux15stack_allocatorERKNS_14torrent_handleERKN5boost4asio2ip14basic_endpointINS9_3tcpEEENS7_17basic_string_viewIcSt11char_traitsIcEEE
libtorrent-rasterbar.so.10:_ZN10libtorrent13tracker_alertC2ERNS_3aux15stack_allocatorERKNS_14torrent_handleERKN5boost4asio2ip14basic_endpointINS9_3tcpEEENS7_17basic_string_viewIcSt11char_traitsIcEEE
libtorrent-rasterbar.so.10:_ZN10libtorrent13upnp_categoryEv
libtorrent-rasterbar.so.10:_ZN10libtorrent14add_magnet_uriERNS_7sessionERKNSt7__cxx1112basic_stringIcSt11char_traitsIcESaIcEEERKNS_18add_torrent_paramsE
libtorrent-rasterbar.so.10:_ZN10libtorrent14add_magnet_uriERNS_7sessionERKNSt7__cxx1112basic_stringIcSt11char_traitsIcESaIcEEERKNS_18add_torrent_paramsERN5boost6system10error_codeE
libtorrent-rasterbar.so.10:_ZN10libtorrent14add_magnet_uriERNS_7sessionERKNSt7__cxx1112basic_stringIcSt11char_traitsIcESaIcEEES9_NS_14storage_mode_tEbSt8functionIFPNS_17storage_interfaceERKNS_14storage_paramsERNS_9file_poolEEEPv
libtorrent-rasterbar.so.10:_ZN10libtorrent14announce_entry13find_endpointERKNS_3aux20listen_socket_handleE
libtorrent-rasterbar.so.10:_ZN10libtorrent14announce_entry4trimEv
libtorrent-rasterbar.so.10:_ZN10libtorrent14announce_entry5resetEv
libtorrent-rasterbar.so.10:_ZN10libtorrent14announce_entryC1EN5boost17basic_string_viewIcSt11char_traitsIcEEE
libtorrent-rasterbar.so.10:_ZN10libtorrent14announce_entryC1ERKS0_
libtorrent-rasterbar.so.10:_ZN10libtorrent14announce_entryC1Ev
libtorrent-rasterbar.so.10:_ZN10libtorrent14announce_entryC2EN5boost17basic_string_viewIcSt11char_traitsIcEEE
libtorrent-rasterbar.so.10:_ZN10libtorrent14announce_entryC2ERKS0_
libtorrent-rasterbar.so.10:_ZN10libtorrent14announce_entryC2Ev
libtorrent-rasterbar.so.10:_ZN10libtorrent14announce_entryD1Ev
libtorrent-rasterbar.so.10:_ZN10libtorrent14announce_entryD2Ev
libtorrent-rasterbar.so.10:_ZN10libtorrent14announce_entryaSERKS0_
libtorrent-rasterbar.so.10:_ZN10libtorrent14bdecode_errors15make_error_codeENS0_15error_code_enumE
libtorrent-rasterbar.so.10:_ZN10libtorrent14chained_buffer11build_iovecEi
libtorrent-rasterbar.so.10:_ZN10libtorrent14chained_buffer17allocate_appendixEi
libtorrent-rasterbar.so.10:_ZN10libtorrent14chained_buffer19build_mutable_iovecEiRSt6vectorINS_4spanIcEESaIS3_EE
libtorrent-rasterbar.so.10:_ZN10libtorrent14chained_buffer20space_in_last_bufferEv
libtorrent-rasterbar.so.10:_ZN10libtorrent14chained_buffer5clearEv
libtorrent-rasterbar.so.10:_ZN10libtorrent14chained_buffer6appendENS_4spanIKcEE
libtorrent-rasterbar.so.10:_ZN10libtorrent14chained_buffer9pop_frontEi
libtorrent-rasterbar.so.10:_ZN10libtorrent14chained_bufferD1Ev
libtorrent-rasterbar.so.10:_ZN10libtorrent14chained_bufferD2Ev
libtorrent-rasterbar.so.10:_ZN10libtorrent14create_torrent11add_trackerEN5boost17basic_string_viewIcSt11char_traitsIcEEEi
libtorrent-rasterbar.so.10:_ZN10libtorrent14create_torrent11set_commentEPKc
libtorrent-rasterbar.so.10:_ZN10libtorrent14create_torrent11set_creatorEPKc
libtorrent-rasterbar.so.10:_ZN10libtorrent14create_torrent12add_url_seedEN5boost17basic_string_viewIcSt11char_traitsIcEEE
libtorrent-rasterbar.so.10:_ZN10libtorrent14create_torrent13add_http_seedEN5boost17basic_string_viewIcSt11char_traitsIcEEE
libtorrent-rasterbar.so.10:_ZN10libtorrent14create_torrent13set_file_hashENS_3aux14strong_typedefIiNS1_14file_index_tagEvEERKNS_8digest32ILl160EEE
libtorrent-rasterbar.so.10:_ZN10libtorrent14create_torrent13set_root_certEN5boost17basic_string_viewIcSt11char_traitsIcEEE
libtorrent-rasterbar.so.10:_ZN10libtorrent14create_torrent14add_collectionEN5boost17basic_string_viewIcSt11char_traitsIcEEE
libtorrent-rasterbar.so.10:_ZN10libtorrent14create_torrent19add_similar_torrentENS_8digest32ILl160EEE
libtorrent-rasterbar.so.10:_ZN10libtorrent14create_torrent8add_nodeESt4pairINSt7__cxx1112basic_stringIcSt11char_traitsIcESaIcEEEiE
libtorrent-rasterbar.so.10:_ZN10libtorrent14create_torrent8set_hashENS_3aux14strong_typedefIiNS1_15piece_index_tagEvEERKNS_8digest32ILl160EEE
libtorrent-rasterbar.so.10:_ZN10libtorrent14create_torrentC1ERKNS_12torrent_infoE
libtorrent-rasterbar.so.10:_ZN10libtorrent14create_torrentC1ERNS_12file_storageEiiNS_5flags13bitfield_flagIjNS_16create_flags_tagEvEEi
libtorrent-rasterbar.so.10:_ZN10libtorrent14create_torrentC2ERKNS_12torrent_infoE
libtorrent-rasterbar.so.10:_ZN10libtorrent14create_torrentC2ERNS_12file_storageEiiNS_5flags13bitfield_flagIjNS_16create_flags_tagEvEEi
libtorrent-rasterbar.so.10:_ZN10libtorrent14create_torrentD1Ev
libtorrent-rasterbar.so.10:_ZN10libtorrent14create_torrentD2Ev
libtorrent-rasterbar.so.10:_ZN10libtorrent14disk_io_thread10abort_jobsEv
libtorrent-rasterbar.so.10:_ZN10libtorrent14disk_io_thread10async_hashENS_3aux14strong_typedefIjNS_19storage_index_tag_tEvEENS2_IiNS1_15piece_index_tagEvEENS_5flags13bitfield_flagIhNS_18disk_job_flags_tagEvEESt8functionIFvS6_RKNS_8digest32ILl160EEERKNS_13storage_errorEEE
libtorrent-rasterbar.so.10:_ZN10libtorrent14disk_io_thread10async_readENS_3aux14strong_typedefIjNS_19storage_index_tag_tEvEERKNS_12peer_requestESt8functionIFvNS_18disk_buffer_holderENS_5flags13bitfield_flagIhNS_18disk_job_flags_tagEvEERKNS_13storage_errorEEESD_
libtorrent-rasterbar.so.10:_ZN10libtorrent14disk_io_thread10thread_funERNS0_9job_queueERNS_19disk_io_thread_poolE
libtorrent-rasterbar.so.10:_ZN10libtorrent14disk_io_thread11async_writeENS_3aux14strong_typedefIjNS_19storage_index_tag_tEvEERKNS_12peer_requestEPKcSt10shared_ptrINS_13disk_observerEESt8functionIFvRKNS_13storage_errorEEENS_5flags13bitfield_flagIhNS_18disk_job_flags_tagEvEE
libtorrent-rasterbar.so.10:_ZN10libtorrent14disk_io_thread11build_iovecEPNS_18cached_piece_entryEiiNS_4spanINS3_IcEEEENS3_IiEEi
libtorrent-rasterbar.so.10:_ZN10libtorrent14disk_io_thread11clear_pieceENS_3aux14strong_typedefIjNS_19storage_index_tag_tEvEENS2_IiNS1_15piece_index_tagEvEE
libtorrent-rasterbar.so.10:_ZN10libtorrent14disk_io_thread11execute_jobEPNS_11disk_io_jobE
libtorrent-rasterbar.so.10:_ZN10libtorrent14disk_io_thread11flush_cacheEPNS_17storage_interfaceEjRNS_9tailqueueINS_11disk_io_jobEEERSt11unique_lockISt5mutexE
libtorrent-rasterbar.so.10:_ZN10libtorrent14disk_io_thread11flush_iovecEPNS_18cached_piece_entryENS_4spanIKNS3_IcEEEENS3_IKiEEiRNS_13storage_errorE
libtorrent-rasterbar.so.10:_ZN10libtorrent14disk_io_thread11flush_pieceEPNS_18cached_piece_entryEjRNS_9tailqueueINS_11disk_io_jobEEERSt11unique_lockISt5mutexE
libtorrent-rasterbar.so.10:_ZN10libtorrent14disk_io_thread11flush_rangeEPNS_18cached_piece_entryEiiRNS_9tailqueueINS_11disk_io_jobEEERSt11unique_lockISt5mutexE
libtorrent-rasterbar.so.10:_ZN10libtorrent14disk_io_thread11get_torrentENS_3aux14strong_typedefIjNS_19storage_index_tag_tEvEE
libtorrent-rasterbar.so.10:_ZN10libtorrent14disk_io_thread11kick_hasherEPNS_18cached_piece_entryERSt11unique_lockISt5mutexE
libtorrent-rasterbar.so.10:_ZN10libtorrent14disk_io_thread11new_torrentESt8functionIFPNS_17storage_interfaceERKNS_14storage_paramsERNS_9file_poolEEES4_RKSt10shared_ptrIvE
libtorrent-rasterbar.so.10:_ZN10libtorrent14disk_io_thread11perform_jobEPNS_11disk_io_jobERNS_9tailqueueIS1_EE
libtorrent-rasterbar.so.10:_ZN10libtorrent14disk_io_thread11submit_jobsEv
libtorrent-rasterbar.so.10:_ZN10libtorrent14disk_io_thread12pool_for_jobEPNS_11disk_io_jobE
libtorrent-rasterbar.so.10:_ZN10libtorrent14disk_io_thread12wait_for_jobERNS0_9job_queueERNS_19disk_io_thread_poolERSt11unique_lockISt5mutexE
libtorrent-rasterbar.so.10:_ZN10libtorrent14disk_io_thread13add_fence_jobEPNS_11disk_io_jobEb
libtorrent-rasterbar.so.10:_ZN10libtorrent14disk_io_thread13do_trim_cacheEPNS_11disk_io_jobERNS_9tailqueueIS1_EE
libtorrent-rasterbar.so.10:_ZN10libtorrent14disk_io_thread13iovec_flushedEPNS_18cached_piece_entryEPiiiRKNS_13storage_errorERNS_9tailqueueINS_11disk_io_jobEEE
libtorrent-rasterbar.so.10:_ZN10libtorrent14disk_io_thread13queue_for_jobEPNS_11disk_io_jobE
libtorrent-rasterbar.so.10:_ZN10libtorrent14disk_io_thread14do_clear_pieceEPNS_11disk_io_jobERNS_9tailqueueIS1_EE
libtorrent-rasterbar.so.10:_ZN10libtorrent14disk_io_thread14do_flush_pieceEPNS_11disk_io_jobERNS_9tailqueueIS1_EE
libtorrent-rasterbar.so.10:_ZN10libtorrent14disk_io_thread14do_rename_fileEPNS_11disk_io_jobERNS_9tailqueueIS1_EE
libtorrent-rasterbar.so.10:_ZN10libtorrent14disk_io_thread14fail_jobs_implERKNS_13storage_errorERNS_9tailqueueINS_11disk_io_jobEEES7_
libtorrent-rasterbar.so.10:_ZN10libtorrent14disk_io_thread14reclaim_blocksENS_4spanINS_3aux21block_cache_referenceEEE
libtorrent-rasterbar.so.10:_ZN10libtorrent14disk_io_thread14remove_torrentENS_3aux14strong_typedefIjNS_19storage_index_tag_tEvEE
libtorrent-rasterbar.so.10:_ZN10libtorrent14disk_io_thread15abort_hash_jobsENS_3aux14strong_typedefIjNS_19storage_index_tag_tEvEE
libtorrent-rasterbar.so.10:_ZN10libtorrent14disk_io_thread15do_delete_filesEPNS_11disk_io_jobERNS_9tailqueueIS1_EE
libtorrent-rasterbar.so.10:_ZN10libtorrent14disk_io_thread15do_flush_hashedEPNS_11disk_io_jobERNS_9tailqueueIS1_EE
libtorrent-rasterbar.so.10:_ZN10libtorrent14disk_io_thread15do_move_storageEPNS_11disk_io_jobERNS_9tailqueueIS1_EE
libtorrent-rasterbar.so.10:_ZN10libtorrent14disk_io_thread15do_stop_torrentEPNS_11disk_io_jobERNS_9tailqueueIS1_EE
libtorrent-rasterbar.so.10:_ZN10libtorrent14disk_io_thread16do_file_priorityEPNS_11disk_io_jobERNS_9tailqueueIS1_EE
libtorrent-rasterbar.so.10:_ZN10libtorrent14disk_io_thread16do_flush_storageEPNS_11disk_io_jobERNS_9tailqueueIS1_EE
libtorrent-rasterbar.so.10:_ZN10libtorrent14disk_io_thread16do_release_filesEPNS_11disk_io_jobERNS_9tailqueueIS1_EE
libtorrent-rasterbar.so.10:_ZN10libtorrent14disk_io_thread16do_uncached_hashEPNS_11disk_io_jobE
libtorrent-rasterbar.so.10:_ZN10libtorrent14disk_io_thread16do_uncached_readEPNS_11disk_io_jobE
libtorrent-rasterbar.so.10:_ZN10libtorrent14disk_io_thread16settings_updatedEv
libtorrent-rasterbar.so.10:_ZN10libtorrent14disk_io_thread16try_flush_hashedEPNS_18cached_piece_entryEiRNS_9tailqueueINS_11disk_io_jobEEERSt11unique_lockISt5mutexE
libtorrent-rasterbar.so.10:_ZN10libtorrent14disk_io_thread17async_check_filesENS_3aux14strong_typedefIjNS_19storage_index_tag_tEvEEPKNS_18add_torrent_paramsERNS1_17container_wrapperINSt7__cxx1112basic_stringIcSt11char_traitsIcESaIcEEENS2_IiNS1_14file_index_tagEvEESt6vectorISE_SaISE_EEEESt8functionIFvNS_8status_tERKNS_13storage_errorEEE
libtorrent-rasterbar.so.10:_ZN10libtorrent14disk_io_thread17async_clear_pieceENS_3aux14strong_typedefIjNS_19storage_index_tag_tEvEENS2_IiNS1_15piece_index_tagEvEESt8functionIFvS6_EE
libtorrent-rasterbar.so.10:_ZN10libtorrent14disk_io_thread17async_flush_pieceENS_3aux14strong_typedefIjNS_19storage_index_tag_tEvEENS2_IiNS1_15piece_index_tagEvEESt8functionIFvvEE
libtorrent-rasterbar.so.10:_ZN10libtorrent14disk_io_thread17async_rename_fileENS_3aux14strong_typedefIjNS_19storage_index_tag_tEvEENS2_IiNS1_14file_index_tagEvEENSt7__cxx1112basic_stringIcSt11char_traitsIcESaIcEEESt8functionIFvRKSC_S6_RKNS_13storage_errorEEE
libtorrent-rasterbar.so.10:_ZN10libtorrent14disk_io_thread17call_job_handlersEv
libtorrent-rasterbar.so.10:_ZN10libtorrent14disk_io_thread17check_cache_levelERSt11unique_lockISt5mutexERNS_9tailqueueINS_11disk_io_jobEEE
libtorrent-rasterbar.so.10:_ZN10libtorrent14disk_io_thread17do_uncached_writeEPNS_11disk_io_jobE
libtorrent-rasterbar.so.10:_ZN10libtorrent14disk_io_thread17immediate_executeEv
libtorrent-rasterbar.so.10:_ZN10libtorrent14disk_io_thread18add_completed_jobsERNS_9tailqueueINS_11disk_io_jobEEE
libtorrent-rasterbar.so.10:_ZN10libtorrent14disk_io_thread18async_delete_filesENS_3aux14strong_typedefIjNS_19storage_index_tag_tEvEENS_5flags13bitfield_flagIhNS_16remove_flags_tagEvEESt8functionIFvRKNS_13storage_errorEEE
libtorrent-rasterbar.so.10:_ZN10libtorrent14disk_io_thread18async_move_storageENS_3aux14strong_typedefIjNS_19storage_index_tag_tEvEENSt7__cxx1112basic_stringIcSt11char_traitsIcESaIcEEENS_12move_flags_tESt8functionIFvNS_8status_tERKSA_RKNS_13storage_errorEEE
libtorrent-rasterbar.so.10:_ZN10libtorrent14disk_io_thread18async_stop_torrentENS_3aux14strong_typedefIjNS_19storage_index_tag_tEvEESt8functionIFvvEE
libtorrent-rasterbar.so.10:_ZN10libtorrent14disk_io_thread18prep_read_job_implEPNS_11disk_io_jobEb
libtorrent-rasterbar.so.10:_ZN10libtorrent14disk_io_thread18trigger_cache_trimEv
libtorrent-rasterbar.so.10:_ZN10libtorrent14disk_io_thread19async_release_filesENS_3aux14strong_typedefIjNS_19storage_index_tag_tEvEESt8functionIFvvEE
libtorrent-rasterbar.so.10:_ZN10libtorrent14disk_io_thread19do_check_fastresumeEPNS_11disk_io_jobERNS_9tailqueueIS1_EE
libtorrent-rasterbar.so.10:_ZN10libtorrent14disk_io_thread22try_flush_write_blocksEiRNS_9tailqueueINS_11disk_io_jobEEERSt11unique_lockISt5mutexE
libtorrent-rasterbar.so.10:_ZN10libtorrent14disk_io_thread23add_completed_jobs_implERNS_9tailqueueINS_11disk_io_jobEEES4_
libtorrent-rasterbar.so.10:_ZN10libtorrent14disk_io_thread23async_set_file_priorityENS_3aux14strong_typedefIjNS_19storage_index_tag_tEvEENS1_17container_wrapperINS2_IhNS_21download_priority_tagEvEENS2_IiNS1_14file_index_tagEvEESt6vectorIS7_SaIS7_EEEESt8functionIFvRKNS_13storage_errorESD_EE
libtorrent-rasterbar.so.10:_ZN10libtorrent14disk_io_thread24maybe_flush_write_blocksEv
libtorrent-rasterbar.so.10:_ZN10libtorrent14disk_io_thread26flush_expired_write_blocksERNS_9tailqueueINS_11disk_io_jobEEERSt11unique_lockISt5mutexE
libtorrent-rasterbar.so.10:_ZN10libtorrent14disk_io_thread28maybe_issue_queued_read_jobsEPNS_18cached_piece_entryERNS_9tailqueueINS_11disk_io_jobEEE
libtorrent-rasterbar.so.10:_ZN10libtorrent14disk_io_thread5abortEb
libtorrent-rasterbar.so.10:_ZN10libtorrent14disk_io_thread7add_jobEPNS_11disk_io_jobEb
libtorrent-rasterbar.so.10:_ZN10libtorrent14disk_io_thread7do_hashEPNS_11disk_io_jobERNS_9tailqueueIS1_EE
libtorrent-rasterbar.so.10:_ZN10libtorrent14disk_io_thread7do_readEPNS_11disk_io_jobERNS_9tailqueueIS1_EE
libtorrent-rasterbar.so.10:_ZN10libtorrent14disk_io_thread8do_writeEPNS_11disk_io_jobERNS_9tailqueueIS1_EE
libtorrent-rasterbar.so.10:_ZN10libtorrent14disk_io_thread9fail_jobsERKNS_13storage_errorERNS_9tailqueueINS_11disk_io_jobEEE
libtorrent-rasterbar.so.10:_ZN10libtorrent14disk_io_threadC1ERN5boost4asio10io_contextERKNS_3aux16session_settingsERNS_8countersE
libtorrent-rasterbar.so.10:_ZN10libtorrent14disk_io_threadC2ERN5boost4asio10io_contextERKNS_3aux16session_settingsERNS_8countersE
libtorrent-rasterbar.so.10:_ZN10libtorrent14ed25519_verifyEPKhS1_lS1_
libtorrent-rasterbar.so.10:_ZN10libtorrent14lsd_peer_alertC1ERNS_3aux15stack_allocatorERKNS_14torrent_handleERKN5boost4asio2ip14basic_endpointINS9_3tcpEEE
libtorrent-rasterbar.so.10:_ZN10libtorrent14lsd_peer_alertC2ERNS_3aux15stack_allocatorERKNS_14torrent_handleERKN5boost4asio2ip14basic_endpointINS9_3tcpEEE
libtorrent-rasterbar.so.10:_ZN10libtorrent14operation_nameENS_11operation_tE
libtorrent-rasterbar.so.10:_ZN10libtorrent14operation_nameEi
libtorrent-rasterbar.so.10:_ZN10libtorrent14parse_endpointEN5boost17basic_string_viewIcSt11char_traitsIcEEERNS0_6system10error_codeE
libtorrent-rasterbar.so.10:_ZN10libtorrent14peer_ban_alertC1ERNS_3aux15stack_allocatorENS_14torrent_handleERKN5boost4asio2ip14basic_endpointINS7_3tcpEEERKNS_8digest32ILl160EEE
libtorrent-rasterbar.so.10:_ZN10libtorrent14peer_ban_alertC2ERNS_3aux15stack_allocatorENS_14torrent_handleERKN5boost4asio2ip14basic_endpointINS7_3tcpEEERKNS_8digest32ILl160EEE
libtorrent-rasterbar.so.10:_ZN10libtorrent14peer_class_set12remove_classERNS_15peer_class_poolENS_3aux14strong_typedefIjNS_14peer_class_tagEvEE
libtorrent-rasterbar.so.10:_ZN10libtorrent14peer_class_set9add_classERNS_15peer_class_poolENS_3aux14strong_typedefIjNS_14peer_class_tagEvEE
libtorrent-rasterbar.so.10:_ZN10libtorrent14peer_log_alertC1ERNS_3aux15stack_allocatorERKNS_14torrent_handleERKN5boost4asio2ip14basic_endpointINS9_3tcpEEERKNS_8digest32ILl160EEENS0_11direction_tEPKcSL_P13__va_list_tag
libtorrent-rasterbar.so.10:_ZN10libtorrent14peer_log_alertC2ERNS_3aux15stack_allocatorERKNS_14torrent_handleERKN5boost4asio2ip14basic_endpointINS9_3tcpEEERKNS_8digest32ILl160EEENS0_11direction_tEPKcSL_P13__va_list_tag
libtorrent-rasterbar.so.10:_ZN10libtorrent14print_endpointB5cxx11ERKN5boost4asio2ip14basic_endpointINS2_3tcpEEE
libtorrent-rasterbar.so.10:_ZN10libtorrent14print_endpointB5cxx11ERKN5boost4asio2ip14basic_endpointINS2_3udpEEE
libtorrent-rasterbar.so.10:_ZN10libtorrent14print_endpointB5cxx11ERKN5boost4asio2ip7addressEi
libtorrent-rasterbar.so.10:_ZN10libtorrent14receive_buffer11advance_posEi
libtorrent-rasterbar.so.10:_ZN10libtorrent14receive_buffer14mutable_bufferEi
libtorrent-rasterbar.so.10:_ZN10libtorrent14receive_buffer14mutable_bufferEv
libtorrent-rasterbar.so.10:_ZN10libtorrent14receive_buffer3cutEiii
libtorrent-rasterbar.so.10:_ZN10libtorrent14receive_buffer4growEi
libtorrent-rasterbar.so.10:_ZN10libtorrent14receive_buffer5resetEi
libtorrent-rasterbar.so.10:_ZN10libtorrent14receive_buffer7reserveEi
libtorrent-rasterbar.so.10:_ZN10libtorrent14receive_buffer9normalizeEi
libtorrent-rasterbar.so.10:_ZN10libtorrent14recursive_copyERKNSt7__cxx1112basic_stringIcSt11char_traitsIcESaIcEEES7_RN5boost6system10error_codeE
libtorrent-rasterbar.so.10:_ZN10libtorrent14session_handle10load_stateERKNS_10lazy_entryENS_5flags13bitfield_flagIjNS_20save_state_flags_tagEvEE
libtorrent-rasterbar.so.10:_ZN10libtorrent14session_handle10load_stateERKNS_12bdecode_nodeENS_5flags13bitfield_flagIjNS_20save_state_flags_tagEvEE
libtorrent-rasterbar.so.10:_ZN10libtorrent14session_handle10load_stateERKNS_5entryENS_5flags13bitfield_flagIjNS_20save_state_flags_tagEvEE
libtorrent-rasterbar.so.10:_ZN10libtorrent14session_handle10pop_alertsEPSt6vectorIPNS_5alertESaIS3_EE
libtorrent-rasterbar.so.10:_ZN10libtorrent14session_handle10start_upnpEv
libtorrent-rasterbar.so.10:_ZN10libtorrent14session_handle11add_torrentEONS_18add_torrent_paramsE
libtorrent-rasterbar.so.10:_ZN10libtorrent14session_handle11add_torrentEONS_18add_torrent_paramsERN5boost6system10error_codeE
libtorrent-rasterbar.so.10:_ZN10libtorrent14session_handle11add_torrentEPKcRKNS_8digest32ILl160EEES2_RKNSt7__cxx1112basic_stringIcSt11char_traitsIcESaIcEEERKNS_5entryENS_14storage_mode_tEbSt8functionIFPNS_17storage_interfaceERKNS_14storage_paramsERNS_9file_poolEEEPv
libtorrent-rasterbar.so.10:_ZN10libtorrent14session_handle11add_torrentERKNS_12torrent_infoERKNSt7__cxx1112basic_stringIcSt11char_traitsIcESaIcEEERKNS_5entryENS_14storage_mode_tEbSt8functionIFPNS_17storage_interfaceERKNS_14storage_paramsERNS_9file_poolEEE
libtorrent-rasterbar.so.10:_ZN10libtorrent14session_handle11add_torrentERKNS_18add_torrent_paramsE
libtorrent-rasterbar.so.10:_ZN10libtorrent14session_handle11add_torrentERKNS_18add_torrent_paramsERN5boost6system10error_codeE
libtorrent-rasterbar.so.10:_ZN10libtorrent14session_handle11set_peer_idERKNS_8digest32ILl160EEE
libtorrent-rasterbar.so.10:_ZN10libtorrent14session_handle11stop_natpmpEv
libtorrent-rasterbar.so.10:_ZN10libtorrent14session_handle12add_dht_nodeERKSt4pairINSt7__cxx1112basic_stringIcSt11char_traitsIcESaIcEEEiE
libtorrent-rasterbar.so.10:_ZN10libtorrent14session_handle12dht_announceERKNS_8digest32ILl160EEEiNS_5flags13bitfield_flagIhNS_3dht21dht_announce_flag_tagEvEE
libtorrent-rasterbar.so.10:_ZN10libtorrent14session_handle12dht_get_itemERKNS_8digest32ILl160EEE
libtorrent-rasterbar.so.10:_ZN10libtorrent14session_handle12dht_get_itemESt5arrayIcLm32EENSt7__cxx1112basic_stringIcSt11char_traitsIcESaIcEEE
libtorrent-rasterbar.so.10:_ZN10libtorrent14session_handle12dht_put_itemENS_5entryE
libtorrent-rasterbar.so.10:_ZN10libtorrent14session_handle12dht_put_itemESt5arrayIcLm32EESt8functionIFvRNS_5entryERS1_IcLm64EERlRKNSt7__cxx1112basic_stringIcSt11char_traitsIcESaIcEEEEESE_
libtorrent-rasterbar.so.10:_ZN10libtorrent14session_handle12start_natpmpEv
libtorrent-rasterbar.so.10:_ZN10libtorrent14session_handle13add_extensionESt10shared_ptrINS_6pluginEE
libtorrent-rasterbar.so.10:_ZN10libtorrent14session_handle13add_extensionESt8functionIFSt10shared_ptrINS_14torrent_pluginEERKNS_14torrent_handleEPvEE
libtorrent-rasterbar.so.10:_ZN10libtorrent14session_handle13dht_get_peersERKNS_8digest32ILl160EEE
libtorrent-rasterbar.so.10:_ZN10libtorrent14session_handle13load_asnum_dbEPKc
libtorrent-rasterbar.so.10:_ZN10libtorrent14session_handle13load_asnum_dbEPKw
libtorrent-rasterbar.so.10:_ZN10libtorrent14session_handle13set_dht_proxyERKNS_3aux14proxy_settingsE
libtorrent-rasterbar.so.10:_ZN10libtorrent14session_handle13set_i2p_proxyERKNS_3aux14proxy_settingsE
libtorrent-rasterbar.so.10:_ZN10libtorrent14session_handle13set_ip_filterERKNS_9ip_filterE
libtorrent-rasterbar.so.10:_ZN10libtorrent14session_handle14add_dht_routerERKSt4pairINSt7__cxx1112basic_stringIcSt11char_traitsIcESaIcEEEiE
libtorrent-rasterbar.so.10:_ZN10libtorrent14session_handle14apply_settingsEONS_13settings_packE
libtorrent-rasterbar.so.10:_ZN10libtorrent14session_handle14apply_settingsERKNS_13settings_packE
libtorrent-rasterbar.so.10:_ZN10libtorrent14session_handle14dht_live_nodesERKNS_8digest32ILl160EEE
libtorrent-rasterbar.so.10:_ZN10libtorrent14session_handle14get_io_serviceEv
libtorrent-rasterbar.so.10:_ZN10libtorrent14session_handle14post_dht_statsEv
libtorrent-rasterbar.so.10:_ZN10libtorrent14session_handle14remove_torrentERKNS_14torrent_handleENS_5flags13bitfield_flagIhNS_16remove_flags_tagEvEE
libtorrent-rasterbar.so.10:_ZN10libtorrent14session_handle14set_alert_maskEj
libtorrent-rasterbar.so.10:_ZN10libtorrent14session_handle14set_peer_classENS_3aux14strong_typedefIjNS_14peer_class_tagEvEERKNS_15peer_class_infoE
libtorrent-rasterbar.so.10:_ZN10libtorrent14session_handle14set_peer_proxyERKNS_3aux14proxy_settingsE
libtorrent-rasterbar.so.10:_ZN10libtorrent14session_handle14use_interfacesEPKc
libtorrent-rasterbar.so.10:_ZN10libtorrent14session_handle14wait_for_alertENSt6chrono8durationIlSt5ratioILl1ELl1000000000EEEE
libtorrent-rasterbar.so.10:_ZN10libtorrent14session_handle15load_country_dbEPKc
libtorrent-rasterbar.so.10:_ZN10libtorrent14session_handle15load_country_dbEPKw
libtorrent-rasterbar.so.10:_ZN10libtorrent14session_handle15set_dht_storageESt8functionIFSt10unique_ptrINS_3dht21dht_storage_interfaceESt14default_deleteIS4_EERKNS3_12dht_settingsEEE
libtorrent-rasterbar.so.10:_ZN10libtorrent14session_handle15set_max_uploadsEi
libtorrent-rasterbar.so.10:_ZN10libtorrent14session_handle15set_pe_settingsERKNS_11pe_settingsE
libtorrent-rasterbar.so.10:_ZN10libtorrent14session_handle15set_port_filterERKNS_11port_filterE
libtorrent-rasterbar.so.10:_ZN10libtorrent14session_handle16add_port_mappingENS_16portmap_protocolEii
libtorrent-rasterbar.so.10:_ZN10libtorrent14session_handle16set_alert_notifyERKSt8functionIFvvEE
libtorrent-rasterbar.so.10:_ZN10libtorrent14session_handle16set_dht_settingsERKNS_3dht12dht_settingsE
libtorrent-rasterbar.so.10:_ZN10libtorrent14session_handle17async_add_torrentEONS_18add_torrent_paramsE
libtorrent-rasterbar.so.10:_ZN10libtorrent14session_handle17async_add_torrentERKNS_18add_torrent_paramsE
libtorrent-rasterbar.so.10:_ZN10libtorrent14session_handle17create_peer_classEPKc
libtorrent-rasterbar.so.10:_ZN10libtorrent14session_handle17delete_peer_classENS_3aux14strong_typedefIjNS_14peer_class_tagEvEE
libtorrent-rasterbar.so.10:_ZN10libtorrent14session_handle17set_load_functionESt8functionIFvRKNS_8digest32ILl160EEERSt6vectorIcSaIcEERN5boost6system10error_codeEEE
libtorrent-rasterbar.so.10:_ZN10libtorrent14session_handle17set_tracker_proxyERKNS_3aux14proxy_settingsE
libtorrent-rasterbar.so.10:_ZN10libtorrent14session_handle18dht_direct_requestERKN5boost4asio2ip14basic_endpointINS3_3udpEEERKNS_5entryEPv
libtorrent-rasterbar.so.10:_ZN10libtorrent14session_handle18post_session_statsEv
libtorrent-rasterbar.so.10:_ZN10libtorrent14session_handle18set_severity_levelENS_5alert10severity_tE
libtorrent-rasterbar.so.10:_ZN10libtorrent14session_handle18set_web_seed_proxyERKNS_3aux14proxy_settingsE
libtorrent-rasterbar.so.10:_ZN10libtorrent14session_handle19delete_port_mappingENS_3aux14strong_typedefIiNS_16port_mapping_tagEvEE
libtorrent-rasterbar.so.10:_ZN10libtorrent14session_handle19set_max_connectionsEi
libtorrent-rasterbar.so.10:_ZN10libtorrent14session_handle20post_torrent_updatesENS_5flags13bitfield_flagIjNS_16status_flags_tagEvEE
libtorrent-rasterbar.so.10:_ZN10libtorrent14session_handle21dht_sample_infohashesERKN5boost4asio2ip14basic_endpointINS3_3udpEEERKNS_8digest32ILl160EEE
libtorrent-rasterbar.so.10:_ZN10libtorrent14session_handle21set_peer_class_filterERKNS_9ip_filterE
libtorrent-rasterbar.so.10:_ZN10libtorrent14session_handle21set_upload_rate_limitEi
libtorrent-rasterbar.so.10:_ZN10libtorrent14session_handle22reopen_network_socketsENS_5flags13bitfield_flagIhNS_24reopen_network_flags_tagEvEE
libtorrent-rasterbar.so.10:_ZN10libtorrent14session_handle23set_download_rate_limitEi
libtorrent-rasterbar.so.10:_ZN10libtorrent14session_handle26set_alert_queue_size_limitEm
libtorrent-rasterbar.so.10:_ZN10libtorrent14session_handle26set_peer_class_type_filterERKNS_22peer_class_type_filterE
libtorrent-rasterbar.so.10:_ZN10libtorrent14session_handle27set_local_upload_rate_limitEi
libtorrent-rasterbar.so.10:_ZN10libtorrent14session_handle29set_local_download_rate_limitEi
libtorrent-rasterbar.so.10:_ZN10libtorrent14session_handle29set_max_half_open_connectionsEi
libtorrent-rasterbar.so.10:_ZN10libtorrent14session_handle5pauseEv
libtorrent-rasterbar.so.10:_ZN10libtorrent14session_handle6resumeEv
libtorrent-rasterbar.so.10:_ZN10libtorrent14session_handle7set_keyEj
libtorrent-rasterbar.so.10:_ZN10libtorrent14session_handle8stop_dhtEv
libtorrent-rasterbar.so.10:_ZN10libtorrent14session_handle8stop_lsdEv
libtorrent-rasterbar.so.10:_ZN10libtorrent14session_handle9as_for_ipERKN5boost4asio2ip7addressE
libtorrent-rasterbar.so.10:_ZN10libtorrent14session_handle9listen_onERKSt4pairIiiERN5boost6system10error_codeEPKci
libtorrent-rasterbar.so.10:_ZN10libtorrent14session_handle9set_proxyERKNS_3aux14proxy_settingsE
libtorrent-rasterbar.so.10:_ZN10libtorrent14session_handle9start_dhtERKNS_5entryE
libtorrent-rasterbar.so.10:_ZN10libtorrent14session_handle9start_dhtEv
libtorrent-rasterbar.so.10:_ZN10libtorrent14session_handle9start_lsdEv
libtorrent-rasterbar.so.10:_ZN10libtorrent14session_handle9stop_upnpEv
libtorrent-rasterbar.so.10:_ZN10libtorrent14session_paramsC1EONS_13settings_packE
libtorrent-rasterbar.so.10:_ZN10libtorrent14session_paramsC1EONS_13settings_packESt6vectorISt10shared_ptrINS_6pluginEESaIS6_EE
libtorrent-rasterbar.so.10:_ZN10libtorrent14session_paramsC1ERKNS_13settings_packE
libtorrent-rasterbar.so.10:_ZN10libtorrent14session_paramsC1ERKNS_13settings_packESt6vectorISt10shared_ptrINS_6pluginEESaIS7_EE
libtorrent-rasterbar.so.10:_ZN10libtorrent14session_paramsC1Ev
libtorrent-rasterbar.so.10:_ZN10libtorrent14session_paramsC2EONS_13settings_packE
libtorrent-rasterbar.so.10:_ZN10libtorrent14session_paramsC2EONS_13settings_packESt6vectorISt10shared_ptrINS_6pluginEESaIS6_EE
libtorrent-rasterbar.so.10:_ZN10libtorrent14session_paramsC2ERKNS_13settings_packE
libtorrent-rasterbar.so.10:_ZN10libtorrent14session_paramsC2ERKNS_13settings_packESt6vectorISt10shared_ptrINS_6pluginEESaIS7_EE
libtorrent-rasterbar.so.10:_ZN10libtorrent14session_paramsC2Ev
libtorrent-rasterbar.so.10:_ZN10libtorrent14socks_categoryEv
libtorrent-rasterbar.so.10:_ZN10libtorrent14torrent_handle11clear_peersEv
libtorrent-rasterbar.so.10:_ZN10libtorrent14torrent_handle13add_extensionERKSt8functionIFSt10shared_ptrINS_14torrent_pluginEERKS0_PvEES7_
libtorrent-rasterbar.so.10:_ZN10libtorrent14torrent_handle19set_ssl_certificateERKNSt7__cxx1112basic_stringIcSt11char_traitsIcESaIcEEES8_S8_S8_
libtorrent-rasterbar.so.10:_ZN10libtorrent14torrent_handle26set_ssl_certificate_bufferERKNSt7__cxx1112basic_stringIcSt11char_traitsIcESaIcEEES8_S8_
libtorrent-rasterbar.so.10:_ZN10libtorrent14torrent_statusC1EOS0_
libtorrent-rasterbar.so.10:_ZN10libtorrent14torrent_statusC1ERKS0_
libtorrent-rasterbar.so.10:_ZN10libtorrent14torrent_statusC1Ev
libtorrent-rasterbar.so.10:_ZN10libtorrent14torrent_statusC2EOS0_
libtorrent-rasterbar.so.10:_ZN10libtorrent14torrent_statusC2ERKS0_
libtorrent-rasterbar.so.10:_ZN10libtorrent14torrent_statusC2Ev
libtorrent-rasterbar.so.10:_ZN10libtorrent14torrent_statusD1Ev
libtorrent-rasterbar.so.10:_ZN10libtorrent14torrent_statusD2Ev
libtorrent-rasterbar.so.10:_ZN10libtorrent14torrent_statusaSEOS0_
libtorrent-rasterbar.so.10:_ZN10libtorrent14torrent_statusaSERKS0_
libtorrent-rasterbar.so.10:_ZN10libtorrent14url_seed_alertC1ERNS_3aux15stack_allocatorERKNS_14torrent_handleEN5boost17basic_string_viewIcSt11char_traitsIcEEERKNS7_6system10error_codeE
libtorrent-rasterbar.so.10:_ZN10libtorrent14url_seed_alertC1ERNS_3aux15stack_allocatorERKNS_14torrent_handleEN5boost17basic_string_viewIcSt11char_traitsIcEEESB_
libtorrent-rasterbar.so.10:_ZN10libtorrent14url_seed_alertC2ERNS_3aux15stack_allocatorERKNS_14torrent_handleEN5boost17basic_string_viewIcSt11char_traitsIcEEERKNS7_6system10error_codeE
libtorrent-rasterbar.so.10:_ZN10libtorrent14url_seed_alertC2ERNS_3aux15stack_allocatorERKNS_14torrent_handleEN5boost17basic_string_viewIcSt11char_traitsIcEEESB_
libtorrent-rasterbar.so.10:_ZN10libtorrent14web_seed_entryC1ERKNSt7__cxx1112basic_stringIcSt11char_traitsIcESaIcEEENS0_6type_tES8_RKSt6vectorISt4pairIS6_S6_ESaISC_EE
libtorrent-rasterbar.so.10:_ZN10libtorrent14web_seed_entryC2ERKNSt7__cxx1112basic_stringIcSt11char_traitsIcESaIcEEENS0_6type_tES8_RKSt6vectorISt4pairIS6_S6_ESaISC_EE
libtorrent-rasterbar.so.10:_ZN10libtorrent15apply_pack_implEPKNS_13settings_packERNS_3aux30session_settings_single_threadEPSt6vectorIMNS3_12session_implEFvvESaIS9_EE
libtorrent-rasterbar.so.10:_ZN10libtorrent15count_zero_bitsEPKhi
libtorrent-rasterbar.so.10:_ZN10libtorrent15default_storage10initializeERNS_13storage_errorE
libtorrent-rasterbar.so.10:_ZN10libtorrent15default_storage11rename_fileENS_3aux14strong_typedefIiNS1_14file_index_tagEvEERKNSt7__cxx1112basic_stringIcSt11char_traitsIcESaIcEEERNS_13storage_errorE
libtorrent-rasterbar.so.10:_ZN10libtorrent15default_storage12delete_filesENS_5flags13bitfield_flagIhNS_16remove_flags_tagEvEERNS_13storage_errorE
libtorrent-rasterbar.so.10:_ZN10libtorrent15default_storage12has_any_fileERNS_13storage_errorE
libtorrent-rasterbar.so.10:_ZN10libtorrent15default_storage12move_storageERKNSt7__cxx1112basic_stringIcSt11char_traitsIcESaIcEEENS_12move_flags_tERNS_13storage_errorE
libtorrent-rasterbar.so.10:_ZN10libtorrent15default_storage12use_partfileENS_3aux14strong_typedefIiNS1_14file_index_tagEvEEb
libtorrent-rasterbar.so.10:_ZN10libtorrent15default_storage13need_partfileEv
libtorrent-rasterbar.so.10:_ZN10libtorrent15default_storage13release_filesERNS_13storage_errorE
libtorrent-rasterbar.so.10:_ZN10libtorrent15default_storage17set_file_priorityERNS_3aux17container_wrapperINS1_14strong_typedefIhNS_21download_priority_tagEvEENS3_IiNS1_14file_index_tagEvEESt6vectorIS5_SaIS5_EEEERNS_13storage_errorE
libtorrent-rasterbar.so.10:_ZN10libtorrent15default_storage18verify_resume_dataERKNS_18add_torrent_paramsERKNS_3aux17container_wrapperINSt7__cxx1112basic_stringIcSt11char_traitsIcESaIcEEENS4_14strong_typedefIiNS4_14file_index_tagEvEESt6vectorISB_SaISB_EEEERNS_13storage_errorE
libtorrent-rasterbar.so.10:_ZN10libtorrent15default_storage4tickEv
libtorrent-rasterbar.so.10:_ZN10libtorrent15default_storage5readvENS_4spanIKNS1_IcEEEENS_3aux14strong_typedefIiNS5_15piece_index_tagEvEEiNS_5flags13bitfield_flagIjNS_13open_mode_tagEvEERNS_13storage_errorE
libtorrent-rasterbar.so.10:_ZN10libtorrent15default_storage6writevENS_4spanIKNS1_IcEEEENS_3aux14strong_typedefIiNS5_15piece_index_tagEvEEiNS_5flags13bitfield_flagIjNS_13open_mode_tagEvEERNS_13storage_errorE
libtorrent-rasterbar.so.10:_ZN10libtorrent15default_storageC1ERKNS_14storage_paramsERNS_9file_poolE
libtorrent-rasterbar.so.10:_ZN10libtorrent15default_storageC2ERKNS_14storage_paramsERNS_9file_poolE
libtorrent-rasterbar.so.10:_ZN10libtorrent15default_storageD0Ev
libtorrent-rasterbar.so.10:_ZN10libtorrent15default_storageD1Ev
libtorrent-rasterbar.so.10:_ZN10libtorrent15default_storageD2Ev
libtorrent-rasterbar.so.10:_ZN10libtorrent15dh_key_exchange14compute_secretEPKh
libtorrent-rasterbar.so.10:_ZN10libtorrent15dh_key_exchange14compute_secretERKN5boost14multiprecision6numberINS2_8backends15cpp_int_backendILj768ELj768ELNS2_16cpp_integer_typeE0ELNS2_18cpp_int_check_typeE0EvEELNS2_26expression_template_optionE0EEE
libtorrent-rasterbar.so.10:_ZN10libtorrent15dh_key_exchangeC1Ev
libtorrent-rasterbar.so.10:_ZN10libtorrent15dh_key_exchangeC2Ev
libtorrent-rasterbar.so.10:_ZN10libtorrent15dht_error_alertC1ERNS_3aux15stack_allocatorENS_11operation_tERKN5boost6system10error_codeE
libtorrent-rasterbar.so.10:_ZN10libtorrent15dht_error_alertC2ERNS_3aux15stack_allocatorENS_11operation_tERKN5boost6system10error_codeE
libtorrent-rasterbar.so.10:_ZN10libtorrent15dht_reply_alertC1ERNS_3aux15stack_allocatorERKNS_14torrent_handleEi
libtorrent-rasterbar.so.10:_ZN10libtorrent15dht_reply_alertC2ERNS_3aux15stack_allocatorERKNS_14torrent_handleEi
libtorrent-rasterbar.so.10:_ZN10libtorrent15dht_stats_alertC1ERNS_3aux15stack_allocatorESt6vectorINS_18dht_routing_bucketESaIS5_EES4_INS_10dht_lookupESaIS8_EE
libtorrent-rasterbar.so.10:_ZN10libtorrent15dht_stats_alertC2ERNS_3aux15stack_allocatorESt6vectorINS_18dht_routing_bucketESaIS5_EES4_INS_10dht_lookupESaIS8_EE
libtorrent-rasterbar.so.10:_ZN10libtorrent15find_error_codeEiN5boost17basic_string_viewIcSt11char_traitsIcEEERNS_22error_code_parse_stateE
libtorrent-rasterbar.so.10:_ZN10libtorrent15find_ip_addressEiN5boost17basic_string_viewIcSt11char_traitsIcEEERNS_22ip_address_parse_stateE
libtorrent-rasterbar.so.10:_ZN10libtorrent15find_metric_idxEN5boost17basic_string_viewIcSt11char_traitsIcEEE
libtorrent-rasterbar.so.10:_ZN10libtorrent15has_parent_pathERKNSt7__cxx1112basic_stringIcSt11char_traitsIcESaIcEEE
libtorrent-rasterbar.so.10:_ZN10libtorrent15http_connection10on_connectERKN5boost6system10error_codeE
libtorrent-rasterbar.so.10:_ZN10libtorrent15http_connection10on_resolveERKN5boost6system10error_codeERKSt6vectorINS1_4asio2ip7addressESaIS9_EE
libtorrent-rasterbar.so.10:_ZN10libtorrent15http_connection10on_timeoutESt8weak_ptrIS0_ERKN5boost6system10error_codeE
libtorrent-rasterbar.so.10:_ZN10libtorrent15http_connection10rate_limitEi
libtorrent-rasterbar.so.10:_ZN10libtorrent15http_connection14on_i2p_resolveERKN5boost6system10error_codeEPKc
libtorrent-rasterbar.so.10:_ZN10libtorrent15http_connection19connect_i2p_trackerEPKc
libtorrent-rasterbar.so.10:_ZN10libtorrent15http_connection19on_assign_bandwidthERKN5boost6system10error_codeE
libtorrent-rasterbar.so.10:_ZN10libtorrent15http_connection3getERKNSt7__cxx1112basic_stringIcSt11char_traitsIcESaIcEEENSt6chrono8durationIlSt5ratioILl1ELl1000000000EEEEiPKNS_3aux14proxy_settingsEiS8_RKN5boost8optionalINSI_4asio2ip7addressEEENS_5flags13bitfield_flagIhNS_17resolver_flag_tagEvEES8_PNS_14i2p_connectionE
libtorrent-rasterbar.so.10:_ZN10libtorrent15http_connection5closeEb
libtorrent-rasterbar.so.10:_ZN10libtorrent15http_connection5startERKNSt7__cxx1112basic_stringIcSt11char_traitsIcESaIcEEEiNSt6chrono8durationIlSt5ratioILl1ELl1000000000EEEEiPKNS_3aux14proxy_settingsEbiRKN5boost8optionalINSI_4asio2ip7addressEEENS_5flags13bitfield_flagIhNS_17resolver_flag_tagEvEEPNS_14i2p_connectionE
libtorrent-rasterbar.so.10:_ZN10libtorrent15http_connection7connectEv
libtorrent-rasterbar.so.10:_ZN10libtorrent15http_connection7on_readERKN5boost6system10error_codeEm
libtorrent-rasterbar.so.10:_ZN10libtorrent15http_connection8callbackEN5boost6system10error_codeENS_4spanIcEE
libtorrent-rasterbar.so.10:_ZN10libtorrent15http_connection8on_writeERKN5boost6system10error_codeE
libtorrent-rasterbar.so.10:_ZN10libtorrent15http_connectionC1ERN5boost4asio10io_contextERNS_18resolver_interfaceERKSt8functionIFvRKNS1_6system10error_codeERKNS_11http_parserENS_4spanIKcEERS0_EEbiRKS7_IFvSI_EERKS7_IFvSI_RSt6vectorINS2_2ip14basic_endpointINSS_3tcpEEESaISV_EEEEPNS2_3ssl7contextE
libtorrent-rasterbar.so.10:_ZN10libtorrent15http_connectionC2ERN5boost4asio10io_contextERNS_18resolver_interfaceERKSt8functionIFvRKNS1_6system10error_codeERKNS_11http_parserENS_4spanIKcEERS0_EEbiRKS7_IFvSI_EERKS7_IFvSI_RSt6vectorINS2_2ip14basic_endpointINSS_3tcpEEESaISV_EEEEPNS2_3ssl7contextE
libtorrent-rasterbar.so.10:_ZN10libtorrent15http_connectionD0Ev
libtorrent-rasterbar.so.10:_ZN10libtorrent15http_connectionD1Ev
libtorrent-rasterbar.so.10:_ZN10libtorrent15http_connectionD2Ev
libtorrent-rasterbar.so.10:_ZN10libtorrent15identify_clientB5cxx11ERKNS_8digest32ILl160EEE
libtorrent-rasterbar.so.10:_ZN10libtorrent15lsd_error_alertC1ERNS_3aux15stack_allocatorERKN5boost6system10error_codeE
libtorrent-rasterbar.so.10:_ZN10libtorrent15lsd_error_alertC2ERNS_3aux15stack_allocatorERKN5boost6system10error_codeE
libtorrent-rasterbar.so.10:_ZN10libtorrent15make_magnet_uriB5cxx11ERKNS_12torrent_infoE
libtorrent-rasterbar.so.10:_ZN10libtorrent15make_magnet_uriB5cxx11ERKNS_14torrent_handleE
libtorrent-rasterbar.so.10:_ZN10libtorrent15match_addr_maskERKN5boost4asio2ip7addressES5_S5_
libtorrent-rasterbar.so.10:_ZN10libtorrent15peer_class_pool14new_peer_classENSt7__cxx1112basic_stringIcSt11char_traitsIcESaIcEEE
libtorrent-rasterbar.so.10:_ZN10libtorrent15peer_class_pool2atENS_3aux14strong_typedefIjNS_14peer_class_tagEvEE
libtorrent-rasterbar.so.10:_ZN10libtorrent15peer_class_pool6decrefENS_3aux14strong_typedefIjNS_14peer_class_tagEvEE
libtorrent-rasterbar.so.10:_ZN10libtorrent15peer_class_pool6increfENS_3aux14strong_typedefIjNS_14peer_class_tagEvEE
libtorrent-rasterbar.so.10:_ZN10libtorrent15peer_connection10disconnectERKN5boost6system10error_codeENS_11operation_tENS_3aux14strong_typedefIhNS_23disconnect_severity_tagEvEE
libtorrent-rasterbar.so.10:_ZN10libtorrent15peer_connection10keep_aliveEv
libtorrent-rasterbar.so.10:_ZN10libtorrent15peer_connection10send_chokeEv
libtorrent-rasterbar.so.10:_ZN10libtorrent15peer_connection10sent_bytesEii
libtorrent-rasterbar.so.10:_ZN10libtorrent15peer_connection10setup_sendEv
libtorrent-rasterbar.so.10:_ZN10libtorrent15peer_connection11add_requestERKNS_11piece_blockENS_5flags13bitfield_flagIhNS_17request_flags_tagEvEE
libtorrent-rasterbar.so.10:_ZN10libtorrent15peer_connection11find_pluginEN5boost17basic_string_viewIcSt11char_traitsIcEEE
libtorrent-rasterbar.so.10:_ZN10libtorrent15peer_connection11second_tickEi
libtorrent-rasterbar.so.10:_ZN10libtorrent15peer_connection11send_bufferENS_4spanIKcEE
libtorrent-rasterbar.so.10:_ZN10libtorrent15peer_connection11set_endgameEb
libtorrent-rasterbar.so.10:_ZN10libtorrent15peer_connection12allowed_fastEv
libtorrent-rasterbar.so.10:_ZN10libtorrent15peer_connection12on_exceptionERKSt9exception
libtorrent-rasterbar.so.10:_ZN10libtorrent15peer_connection12on_send_dataERKN5boost6system10error_codeEm
libtorrent-rasterbar.so.10:_ZN10libtorrent15peer_connection12reject_pieceENS_3aux14strong_typedefIiNS1_15piece_index_tagEvEE
libtorrent-rasterbar.so.10:_ZN10libtorrent15peer_connection12send_suggestENS_3aux14strong_typedefIiNS1_15piece_index_tagEvEE
libtorrent-rasterbar.so.10:_ZN10libtorrent15peer_connection12send_unchokeEv
libtorrent-rasterbar.so.10:_ZN10libtorrent15peer_connection13add_extensionESt10shared_ptrINS_11peer_pluginEE
libtorrent-rasterbar.so.10:_ZN10libtorrent15peer_connection13incoming_haveENS_3aux14strong_typedefIiNS1_15piece_index_tagEvEE
libtorrent-rasterbar.so.10:_ZN10libtorrent15peer_connection13setup_receiveEv
libtorrent-rasterbar.so.10:_ZN10libtorrent15peer_connection14announce_pieceENS_3aux14strong_typedefIiNS1_15piece_index_tagEvEE
libtorrent-rasterbar.so.10:_ZN10libtorrent15peer_connection14cancel_requestERKNS_11piece_blockEb
libtorrent-rasterbar.so.10:_ZN10libtorrent15peer_connection14connect_failedERKN5boost6system10error_codeE
libtorrent-rasterbar.so.10:_ZN10libtorrent15peer_connection14fast_reconnectEb
libtorrent-rasterbar.so.10:_ZN10libtorrent15peer_connection14incoming_chokeEv
libtorrent-rasterbar.so.10:_ZN10libtorrent15peer_connection14incoming_pieceERKNS_12peer_requestEPKc
libtorrent-rasterbar.so.10:_ZN10libtorrent15peer_connection14received_bytesEii
libtorrent-rasterbar.so.10:_ZN10libtorrent15peer_connection14received_pieceENS_3aux14strong_typedefIiNS1_15piece_index_tagEvEE
libtorrent-rasterbar.so.10:_ZN10libtorrent15peer_connection14set_share_modeEb
libtorrent-rasterbar.so.10:_ZN10libtorrent15peer_connection15choke_this_peerEv
libtorrent-rasterbar.so.10:_ZN10libtorrent15peer_connection15incoming_cancelERKNS_12peer_requestE
libtorrent-rasterbar.so.10:_ZN10libtorrent15peer_connection15on_receive_dataERKN5boost6system10error_codeEm
libtorrent-rasterbar.so.10:_ZN10libtorrent15peer_connection15received_synackEb
libtorrent-rasterbar.so.10:_ZN10libtorrent15peer_connection15send_interestedEv
libtorrent-rasterbar.so.10:_ZN10libtorrent15peer_connection15set_upload_onlyEb
libtorrent-rasterbar.so.10:_ZN10libtorrent15peer_connection15superseed_pieceENS_3aux14strong_typedefIiNS1_15piece_index_tagEvEES4_
libtorrent-rasterbar.so.10:_ZN10libtorrent15peer_connection15update_interestEv
libtorrent-rasterbar.so.10:_ZN10libtorrent15peer_connection15wanted_transferEi
libtorrent-rasterbar.so.10:_ZN10libtorrent15peer_connection16assign_bandwidthEii
libtorrent-rasterbar.so.10:_ZN10libtorrent15peer_connection16fill_send_bufferEv
libtorrent-rasterbar.so.10:_ZN10libtorrent15peer_connection16incoming_requestERKNS_12peer_requestE
libtorrent-rasterbar.so.10:_ZN10libtorrent15peer_connection16incoming_suggestENS_3aux14strong_typedefIiNS1_15piece_index_tagEvEE
libtorrent-rasterbar.so.10:_ZN10libtorrent15peer_connection16incoming_unchokeEv
libtorrent-rasterbar.so.10:_ZN10libtorrent15peer_connection16on_metadata_implEv
libtorrent-rasterbar.so.10:_ZN10libtorrent15peer_connection16send_allowed_setEv
libtorrent-rasterbar.so.10:_ZN10libtorrent15peer_connection16send_upload_onlyEb
libtorrent-rasterbar.so.10:_ZN10libtorrent15peer_connection17attach_to_torrentERKNS_8digest32ILl160EEE
libtorrent-rasterbar.so.10:_ZN10libtorrent15peer_connection17incoming_bitfieldERKNS_14typed_bitfieldINS_3aux14strong_typedefIiNS2_15piece_index_tagEvEEEE
libtorrent-rasterbar.so.10:_ZN10libtorrent15peer_connection17incoming_dht_portEi
libtorrent-rasterbar.so.10:_ZN10libtorrent15peer_connection17incoming_have_allEv
libtorrent-rasterbar.so.10:_ZN10libtorrent15peer_connection17request_bandwidthEii
libtorrent-rasterbar.so.10:_ZN10libtorrent15peer_connection18do_update_interestEv
libtorrent-rasterbar.so.10:_ZN10libtorrent15peer_connection18incoming_dont_haveENS_3aux14strong_typedefIiNS1_15piece_index_tagEvEE
libtorrent-rasterbar.so.10:_ZN10libtorrent15peer_connection18incoming_have_noneEv
libtorrent-rasterbar.so.10:_ZN10libtorrent15peer_connection18incoming_keepaliveEv
libtorrent-rasterbar.so.10:_ZN10libtorrent15peer_connection18make_time_criticalERKNS_11piece_blockE
libtorrent-rasterbar.so.10:_ZN10libtorrent15peer_connection18set_holepunch_modeEv
libtorrent-rasterbar.so.10:_ZN10libtorrent15peer_connection19cancel_all_requestsEv
libtorrent-rasterbar.so.10:_ZN10libtorrent15peer_connection19clear_request_queueEv
libtorrent-rasterbar.so.10:_ZN10libtorrent15peer_connection19incoming_interestedEv
libtorrent-rasterbar.so.10:_ZN10libtorrent15peer_connection19on_seed_mode_hashedENS_3aux14strong_typedefIiNS1_15piece_index_tagEvEERKNS_8digest32ILl160EEERKNS_13storage_errorE
libtorrent-rasterbar.so.10:_ZN10libtorrent15peer_connection19received_valid_dataENS_3aux14strong_typedefIiNS1_15piece_index_tagEvEE
libtorrent-rasterbar.so.10:_ZN10libtorrent15peer_connection19send_block_requestsEv
libtorrent-rasterbar.so.10:_ZN10libtorrent15peer_connection19send_not_interestedEv
libtorrent-rasterbar.so.10:_ZN10libtorrent15peer_connection19start_receive_pieceERKNS_12peer_requestE
libtorrent-rasterbar.so.10:_ZN10libtorrent15peer_connection19trancieve_ip_packetEib
libtorrent-rasterbar.so.10:_ZN10libtorrent15peer_connection20check_graceful_pauseEv
libtorrent-rasterbar.so.10:_ZN10libtorrent15peer_connection20clear_download_queueEv
libtorrent-rasterbar.so.10:_ZN10libtorrent15peer_connection20reset_choke_countersEv
libtorrent-rasterbar.so.10:_ZN10libtorrent15peer_connection21incoming_allowed_fastENS_3aux14strong_typedefIiNS1_15piece_index_tagEvEE
libtorrent-rasterbar.so.10:_ZN10libtorrent15peer_connection21max_out_request_queueEi
libtorrent-rasterbar.so.10:_ZN10libtorrent15peer_connection21on_disk_read_completeENS_18disk_buffer_holderENS_5flags13bitfield_flagIhNS_18disk_job_flags_tagEvEERKNS_13storage_errorERKNS_12peer_requestENSt6chrono10time_pointINSC_3_V212system_clockENSC_8durationIlSt5ratioILl1ELl1000000000EEEEEE
libtorrent-rasterbar.so.10:_ZN10libtorrent15peer_connection21received_invalid_dataENS_3aux14strong_typedefIiNS1_15piece_index_tagEvEEb
libtorrent-rasterbar.so.10:_ZN10libtorrent15peer_connection22account_received_bytesEi
libtorrent-rasterbar.so.10:_ZN10libtorrent15peer_connection22on_connection_completeERKN5boost6system10error_codeE
libtorrent-rasterbar.so.10:_ZN10libtorrent15peer_connection22on_disk_write_completeERKNS_13storage_errorERKNS_12peer_requestESt10shared_ptrINS_7torrentEE
libtorrent-rasterbar.so.10:_ZN10libtorrent15peer_connection22send_piece_suggestionsEi
libtorrent-rasterbar.so.10:_ZN10libtorrent15peer_connection23disconnect_if_redundantEv
libtorrent-rasterbar.so.10:_ZN10libtorrent15peer_connection23incoming_not_interestedEv
libtorrent-rasterbar.so.10:_ZN10libtorrent15peer_connection23incoming_piece_fragmentEi
libtorrent-rasterbar.so.10:_ZN10libtorrent15peer_connection23incoming_reject_requestERKNS_12peer_requestE
libtorrent-rasterbar.so.10:_ZN10libtorrent15peer_connection23maybe_unchoke_this_peerEv
libtorrent-rasterbar.so.10:_ZN10libtorrent15peer_connection25update_desired_queue_sizeEv
libtorrent-rasterbar.so.10:_ZN10libtorrent15peer_connection31decrease_est_reciprocation_rateEv
libtorrent-rasterbar.so.10:_ZN10libtorrent15peer_connection31increase_est_reciprocation_rateEv
libtorrent-rasterbar.so.10:_ZN10libtorrent15peer_connection4initEv
libtorrent-rasterbar.so.10:_ZN10libtorrent15peer_connection5startEv
libtorrent-rasterbar.so.10:_ZN10libtorrent15peer_connection7on_diskEv
libtorrent-rasterbar.so.10:_ZN10libtorrent15peer_connection8add_statEll
libtorrent-rasterbar.so.10:_ZN10libtorrent15peer_connection8can_readEv
libtorrent-rasterbar.so.10:_ZN10libtorrent15peer_connection8on_errorERKN5boost6system10error_codeE
libtorrent-rasterbar.so.10:_ZN10libtorrent15peer_connection8sent_synEb
libtorrent-rasterbar.so.10:_ZN10libtorrent15peer_connection9snub_peerEv
libtorrent-rasterbar.so.10:_ZN10libtorrent15peer_connectionC1ERKNS_20peer_connection_argsE
libtorrent-rasterbar.so.10:_ZN10libtorrent15peer_connectionC2ERKNS_20peer_connection_argsE
libtorrent-rasterbar.so.10:_ZN10libtorrent15peer_connectionD0Ev
libtorrent-rasterbar.so.10:_ZN10libtorrent15peer_connectionD1Ev
libtorrent-rasterbar.so.10:_ZN10libtorrent15peer_connectionD2Ev
libtorrent-rasterbar.so.10:_ZN10libtorrent15run_all_updatesERNS_3aux12session_implE
libtorrent-rasterbar.so.10:_ZN10libtorrent15setting_by_nameEN5boost17basic_string_viewIcSt11char_traitsIcEEE
libtorrent-rasterbar.so.10:_ZN10libtorrent15timeout_handler11set_timeoutEii
libtorrent-rasterbar.so.10:_ZN10libtorrent15timeout_handler16timeout_callbackERKN5boost6system10error_codeE
libtorrent-rasterbar.so.10:_ZN10libtorrent15timeout_handler20restart_read_timeoutEv
libtorrent-rasterbar.so.10:_ZN10libtorrent15timeout_handler6cancelEv
libtorrent-rasterbar.so.10:_ZN10libtorrent15timeout_handlerC1ERN5boost4asio10io_contextE
libtorrent-rasterbar.so.10:_ZN10libtorrent15timeout_handlerC2ERN5boost4asio10io_contextE
libtorrent-rasterbar.so.10:_ZN10libtorrent15timeout_handlerD0Ev
libtorrent-rasterbar.so.10:_ZN10libtorrent15timeout_handlerD1Ev
libtorrent-rasterbar.so.10:_ZN10libtorrent15timeout_handlerD2Ev
libtorrent-rasterbar.so.10:_ZN10libtorrent15tracker_manager10sent_bytesEi
libtorrent-rasterbar.so.10:_ZN10libtorrent15tracker_manager13queue_requestERN5boost4asio10io_contextEONS_15tracker_requestERKNS_3aux16session_settingsESt8weak_ptrINS_16request_callbackEE
libtorrent-rasterbar.so.10:_ZN10libtorrent15tracker_manager13send_hostnameERKNS_3aux20listen_socket_handleEPKciNS_4spanIS5_EERN5boost6system10error_codeENS_5flags13bitfield_flagIhNS_18udp_send_flags_tagEvEE
libtorrent-rasterbar.so.10:_ZN10libtorrent15tracker_manager14incoming_errorERKN5boost6system10error_codeERKNS1_4asio2ip14basic_endpointINS7_3udpEEE
libtorrent-rasterbar.so.10:_ZN10libtorrent15tracker_manager14received_bytesEi
libtorrent-rasterbar.so.10:_ZN10libtorrent15tracker_manager14remove_requestEPKNS_22udp_tracker_connectionE
libtorrent-rasterbar.so.10:_ZN10libtorrent15tracker_manager14remove_requestEPKNS_23http_tracker_connectionE
libtorrent-rasterbar.so.10:_ZN10libtorrent15tracker_manager15incoming_packetEPKcNS_4spanIS1_EE
libtorrent-rasterbar.so.10:_ZN10libtorrent15tracker_manager15incoming_packetERKN5boost4asio2ip14basic_endpointINS3_3udpEEENS_4spanIKcEE
libtorrent-rasterbar.so.10:_ZN10libtorrent15tracker_manager18abort_all_requestsEb
libtorrent-rasterbar.so.10:_ZN10libtorrent15tracker_manager21update_transaction_idESt10shared_ptrINS_22udp_tracker_connectionEEj
libtorrent-rasterbar.so.10:_ZN10libtorrent15tracker_manager4sendERKNS_3aux20listen_socket_handleERKN5boost4asio2ip14basic_endpointINS7_3udpEEENS_4spanIKcEERNS5_6system10error_codeENS_5flags13bitfield_flagIhNS_18udp_send_flags_tagEvEE
libtorrent-rasterbar.so.10:_ZN10libtorrent15tracker_managerC1ERKSt8functionIFvRKNS_3aux20listen_socket_handleERKN5boost4asio2ip14basic_endpointINS8_3udpEEENS_4spanIKcEERNS6_6system10error_codeENS_5flags13bitfield_flagIhNS_18udp_send_flags_tagEvEEEERKS1_IFvS5_PSF_iSG_SJ_SN_EERNS_8countersERNS_18resolver_interfaceERKNS2_16session_settingsERNS2_14session_loggerE
libtorrent-rasterbar.so.10:_ZN10libtorrent15tracker_managerC2ERKSt8functionIFvRKNS_3aux20listen_socket_handleERKN5boost4asio2ip14basic_endpointINS8_3udpEEENS_4spanIKcEERNS6_6system10error_codeENS_5flags13bitfield_flagIhNS_18udp_send_flags_tagEvEEEERKS1_IFvS5_PSF_iSG_SJ_SN_EERNS_8countersERNS_18resolver_interfaceERKNS2_16session_settingsERNS2_14session_loggerE
libtorrent-rasterbar.so.10:_ZN10libtorrent15tracker_managerD1Ev
libtorrent-rasterbar.so.10:_ZN10libtorrent15tracker_managerD2Ev
libtorrent-rasterbar.so.10:_ZN10libtorrent15trackerid_alertC1ERNS_3aux15stack_allocatorERKNS_14torrent_handleERKN5boost4asio2ip14basic_endpointINS9_3tcpEEENS7_17basic_string_viewIcSt11char_traitsIcEEERKNSt7__cxx1112basic_stringIcSH_SaIcEEE
libtorrent-rasterbar.so.10:_ZN10libtorrent15trackerid_alertC2ERNS_3aux15stack_allocatorERKNS_14torrent_handleERKN5boost4asio2ip14basic_endpointINS9_3tcpEEENS7_17basic_string_viewIcSt11char_traitsIcEEERKNSt7__cxx1112basic_stringIcSH_SaIcEEE
libtorrent-rasterbar.so.10:_ZN10libtorrent15udp_error_alertC1ERNS_3aux15stack_allocatorERKN5boost4asio2ip14basic_endpointINS6_3udpEEENS_11operation_tERKNS4_6system10error_codeE
libtorrent-rasterbar.so.10:_ZN10libtorrent15udp_error_alertC2ERNS_3aux15stack_allocatorERKN5boost4asio2ip14basic_endpointINS6_3udpEEENS_11operation_tERKNS4_6system10error_codeE
libtorrent-rasterbar.so.10:_ZN10libtorrent15unescape_stringB5cxx11EN5boost17basic_string_viewIcSt11char_traitsIcEEERNS0_6system10error_codeE
libtorrent-rasterbar.so.10:_ZN10libtorrent15verify_encodingERNSt7__cxx1112basic_stringIcSt11char_traitsIcESaIcEEE
libtorrent-rasterbar.so.10:_ZN10libtorrent16address_to_bytesB5cxx11ERKN5boost4asio2ip7addressE
libtorrent-rasterbar.so.10:_ZN10libtorrent16bdecode_categoryEv
libtorrent-rasterbar.so.10:_ZN10libtorrent16broadcast_socket10on_receiveEPNS0_12socket_entryERKN5boost6system10error_codeEm
libtorrent-rasterbar.so.10:_ZN10libtorrent16broadcast_socket11maybe_abortEv
libtorrent-rasterbar.so.10:_ZN10libtorrent16broadcast_socket19open_unicast_socketERN5boost4asio10io_contextERKNS2_2ip7addressERKNS5_10address_v4E
libtorrent-rasterbar.so.10:_ZN10libtorrent16broadcast_socket21open_multicast_socketERN5boost4asio10io_contextERKNS2_2ip7addressEbRNS1_6system10error_codeE
libtorrent-rasterbar.so.10:_ZN10libtorrent16broadcast_socket4openESt8functionIFvRKN5boost4asio2ip14basic_endpointINS4_3udpEEENS_4spanIKcEEEERNS3_10io_contextERNS2_6system10error_codeEb
libtorrent-rasterbar.so.10:_ZN10libtorrent16broadcast_socket4sendEPKciRN5boost6system10error_codeEi
libtorrent-rasterbar.so.10:_ZN10libtorrent16broadcast_socket5closeEv
libtorrent-rasterbar.so.10:_ZN10libtorrent16broadcast_socket7send_toEPKciRKN5boost4asio2ip14basic_endpointINS5_3udpEEERNS3_6system10error_codeE
libtorrent-rasterbar.so.10:_ZN10libtorrent16broadcast_socketC1ERKN5boost4asio2ip14basic_endpointINS3_3udpEEE
libtorrent-rasterbar.so.10:_ZN10libtorrent16broadcast_socketC2ERKN5boost4asio2ip14basic_endpointINS3_3udpEEE
libtorrent-rasterbar.so.10:_ZN10libtorrent16create_directoryERKNSt7__cxx1112basic_stringIcSt11char_traitsIcESaIcEEERN5boost6system10error_codeE
libtorrent-rasterbar.so.10:_ZN10libtorrent16default_settingsEv
libtorrent-rasterbar.so.10:_ZN10libtorrent16disk_buffer_pool10free_iovecENS_4spanIKNS1_IcEEEE
libtorrent-rasterbar.so.10:_ZN10libtorrent16disk_buffer_pool11free_bufferEPc
libtorrent-rasterbar.so.10:_ZN10libtorrent16disk_buffer_pool12num_to_evictEi
libtorrent-rasterbar.so.10:_ZN10libtorrent16disk_buffer_pool12set_settingsERKNS_3aux16session_settingsE
libtorrent-rasterbar.so.10:_ZN10libtorrent16disk_buffer_pool14allocate_iovecENS_4spanINS1_IcEEEE
libtorrent-rasterbar.so.10:_ZN10libtorrent16disk_buffer_pool15allocate_bufferEPKc
libtorrent-rasterbar.so.10:_ZN10libtorrent16disk_buffer_pool15allocate_bufferERbSt10shared_ptrINS_13disk_observerEEPKc
libtorrent-rasterbar.so.10:_ZN10libtorrent16disk_buffer_pool16free_buffer_implEPcRSt11unique_lockISt5mutexE
libtorrent-rasterbar.so.10:_ZN10libtorrent16disk_buffer_pool18check_buffer_levelERSt11unique_lockISt5mutexE
libtorrent-rasterbar.so.10:_ZN10libtorrent16disk_buffer_pool20allocate_buffer_implERSt11unique_lockISt5mutexEPKc
libtorrent-rasterbar.so.10:_ZN10libtorrent16disk_buffer_pool20remove_buffer_in_useEPc
libtorrent-rasterbar.so.10:_ZN10libtorrent16disk_buffer_pool21free_multiple_buffersENS_4spanIPcEE
libtorrent-rasterbar.so.10:_ZN10libtorrent16disk_buffer_poolC1ERN5boost4asio10io_contextERKSt8functionIFvvEE
libtorrent-rasterbar.so.10:_ZN10libtorrent16disk_buffer_poolC2ERN5boost4asio10io_contextERKSt8functionIFvvEE
libtorrent-rasterbar.so.10:_ZN10libtorrent16disk_buffer_poolD1Ev
libtorrent-rasterbar.so.10:_ZN10libtorrent16disk_buffer_poolD2Ev
libtorrent-rasterbar.so.10:_ZN10libtorrent16file_error_alertC1ERNS_3aux15stack_allocatorERKN5boost6system10error_codeENS4_17basic_string_viewIcSt11char_traitsIcEEENS_11operation_tERKNS_14torrent_handleE
libtorrent-rasterbar.so.10:_ZN10libtorrent16file_error_alertC2ERNS_3aux15stack_allocatorERKN5boost6system10error_codeENS4_17basic_string_viewIcSt11char_traitsIcEEENS_11operation_tERKNS_14torrent_handleE
libtorrent-rasterbar.so.10:_ZN10libtorrent16find_control_urlEiN5boost17basic_string_viewIcSt11char_traitsIcEEERNS_11parse_stateE
libtorrent-rasterbar.so.10:_ZN10libtorrent16maybe_url_encodeERKNSt7__cxx1112basic_stringIcSt11char_traitsIcESaIcEEE
libtorrent-rasterbar.so.10:_ZN10libtorrent16merkle_num_leafsEi
libtorrent-rasterbar.so.10:_ZN10libtorrent16merkle_num_nodesEi
libtorrent-rasterbar.so.10:_ZN10libtorrent16min_memory_usageEv
libtorrent-rasterbar.so.10:_ZN10libtorrent16mmap_cache_alertC1ERNS_3aux15stack_allocatorERKN5boost6system10error_codeE
libtorrent-rasterbar.so.10:_ZN10libtorrent16mmap_cache_alertC2ERNS_3aux15stack_allocatorERKN5boost6system10error_codeE
libtorrent-rasterbar.so.10:_ZN10libtorrent16name_for_settingEi
libtorrent-rasterbar.so.10:_ZN10libtorrent16parse_magnet_uriEN5boost17basic_string_viewIcSt11char_traitsIcEEE
libtorrent-rasterbar.so.10:_ZN10libtorrent16parse_magnet_uriEN5boost17basic_string_viewIcSt11char_traitsIcEEERNS0_6system10error_codeE
libtorrent-rasterbar.so.10:_ZN10libtorrent16parse_magnet_uriEN5boost17basic_string_viewIcSt11char_traitsIcEEERNS_18add_torrent_paramsERNS0_6system10error_codeE
libtorrent-rasterbar.so.10:_ZN10libtorrent16peer_error_alertC1ERNS_3aux15stack_allocatorERKNS_14torrent_handleERKN5boost4asio2ip14basic_endpointINS9_3tcpEEERKNS_8digest32ILl160EEENS_11operation_tERKNS7_6system10error_codeE
libtorrent-rasterbar.so.10:_ZN10libtorrent16peer_error_alertC2ERNS_3aux15stack_allocatorERKNS_14torrent_handleERKN5boost4asio2ip14basic_endpointINS9_3tcpEEERKNS_8digest32ILl160EEENS_11operation_tERKNS7_6system10error_codeE
libtorrent-rasterbar.so.10:_ZN10libtorrent16picker_log_alertC1ERNS_3aux15stack_allocatorERKNS_14torrent_handleERKN5boost4asio2ip14basic_endpointINS9_3tcpEEERKNS_8digest32ILl160EEENS_5flags13bitfield_flagIjNS_16picker_flags_tagEvEENS_4spanIKNS_11piece_blockEEE
libtorrent-rasterbar.so.10:_ZN10libtorrent16picker_log_alertC2ERNS_3aux15stack_allocatorERKNS_14torrent_handleERKN5boost4asio2ip14basic_endpointINS9_3tcpEEERKNS_8digest32ILl160EEENS_5flags13bitfield_flagIjNS_16picker_flags_tagEvEENS_4spanIKNS_11piece_blockEEE
libtorrent-rasterbar.so.10:_ZN10libtorrent16read_piece_alertC1ERNS_3aux15stack_allocatorENS_14torrent_handleENS1_14strong_typedefIiNS1_15piece_index_tagEvEEN5boost6system10error_codeE
libtorrent-rasterbar.so.10:_ZN10libtorrent16read_piece_alertC1ERNS_3aux15stack_allocatorERKNS_14torrent_handleENS1_14strong_typedefIiNS1_15piece_index_tagEvEEN5boost12shared_arrayIcEEi
libtorrent-rasterbar.so.10:_ZN10libtorrent16read_piece_alertC2ERNS_3aux15stack_allocatorENS_14torrent_handleENS1_14strong_typedefIiNS1_15piece_index_tagEvEEN5boost6system10error_codeE
libtorrent-rasterbar.so.10:_ZN10libtorrent16read_piece_alertC2ERNS_3aux15stack_allocatorERKNS_14torrent_handleENS1_14strong_typedefIiNS1_15piece_index_tagEvEEN5boost12shared_arrayIcEEi
libtorrent-rasterbar.so.10:_ZN10libtorrent16read_resume_dataENS_4spanIKcEE
libtorrent-rasterbar.so.10:_ZN10libtorrent16read_resume_dataENS_4spanIKcEERN5boost6system10error_codeE
libtorrent-rasterbar.so.10:_ZN10libtorrent16read_resume_dataERKNS_12bdecode_nodeE
libtorrent-rasterbar.so.10:_ZN10libtorrent16read_resume_dataERKNS_12bdecode_nodeERN5boost6system10error_codeE
libtorrent-rasterbar.so.10:_ZN10libtorrent16remove_extensionERKNSt7__cxx1112basic_stringIcSt11char_traitsIcESaIcEEE
libtorrent-rasterbar.so.10:_ZN10libtorrent16resolve_file_urlERKNSt7__cxx1112basic_stringIcSt11char_traitsIcESaIcEEE
libtorrent-rasterbar.so.10:_ZN10libtorrent16set_piece_hashesERNS_14create_torrentERKNSt7__cxx1112basic_stringIcSt11char_traitsIcESaIcEEERKSt8functionIFvNS_3aux14strong_typedefIiNSB_15piece_index_tagEvEEEERN5boost6system10error_codeE
libtorrent-rasterbar.so.10:_ZN10libtorrent16string_ends_withEN5boost17basic_string_viewIcSt11char_traitsIcEEES4_
libtorrent-rasterbar.so.10:_ZN10libtorrent17add_torrent_alertC1ERNS_3aux15stack_allocatorERKNS_14torrent_handleERKNS_18add_torrent_paramsERKN5boost6system10error_codeE
libtorrent-rasterbar.so.10:_ZN10libtorrent17add_torrent_alertC2ERNS_3aux15stack_allocatorERKNS_14torrent_handleERKNS_18add_torrent_paramsERKN5boost6system10error_codeE
libtorrent-rasterbar.so.10:_ZN10libtorrent17announce_endpoint5resetEv
libtorrent-rasterbar.so.10:_ZN10libtorrent17announce_endpoint6failedEiNSt6chrono8durationIiSt5ratioILl1ELl1EEEE
libtorrent-rasterbar.so.10:_ZN10libtorrent17announce_endpointC1ERKNS_3aux20listen_socket_handleEb
libtorrent-rasterbar.so.10:_ZN10libtorrent17announce_endpointC2ERKNS_3aux20listen_socket_handleEb
libtorrent-rasterbar.so.10:_ZN10libtorrent17bandwidth_channel12return_quotaEi
libtorrent-rasterbar.so.10:_ZN10libtorrent17bandwidth_channel12update_quotaEi
libtorrent-rasterbar.so.10:_ZN10libtorrent17bandwidth_channel8throttleEi
libtorrent-rasterbar.so.10:_ZN10libtorrent17bandwidth_channel9use_quotaEi
libtorrent-rasterbar.so.10:_ZN10libtorrent17bandwidth_channelC1Ev
libtorrent-rasterbar.so.10:_ZN10libtorrent17bandwidth_channelC2Ev
libtorrent-rasterbar.so.10:_ZN10libtorrent17bandwidth_manager13update_quotasERKNSt6chrono8durationIlSt5ratioILl1ELl1000000000EEEE
libtorrent-rasterbar.so.10:_ZN10libtorrent17bandwidth_manager17request_bandwidthESt10shared_ptrINS_16bandwidth_socketEEiiPPNS_17bandwidth_channelEi
libtorrent-rasterbar.so.10:_ZN10libtorrent17bandwidth_manager5closeEv
libtorrent-rasterbar.so.10:_ZN10libtorrent17bandwidth_managerC1Ei
libtorrent-rasterbar.so.10:_ZN10libtorrent17bandwidth_managerC2Ei
libtorrent-rasterbar.so.10:_ZN10libtorrent17compare_less_wrapEjjj
libtorrent-rasterbar.so.10:_ZN10libtorrent17convert_to_nativeERKNSt7__cxx1112basic_stringIcSt11char_traitsIcESaIcEEE
libtorrent-rasterbar.so.10:_ZN10libtorrent17default_int_valueEi
libtorrent-rasterbar.so.10:_ZN10libtorrent17endpoint_to_bytesB5cxx11ERKN5boost4asio2ip14basic_endpointINS2_3udpEEE
libtorrent-rasterbar.so.10:_ZN10libtorrent17external_ip_alertC1ERNS_3aux15stack_allocatorERKN5boost4asio2ip7addressE
libtorrent-rasterbar.so.10:_ZN10libtorrent17external_ip_alertC2ERNS_3aux15stack_allocatorERKN5boost4asio2ip7addressE
libtorrent-rasterbar.so.10:_ZN10libtorrent17extract_peer_infoERKNS_12bdecode_nodeERNS_10peer_entryERN5boost6system10error_codeE
libtorrent-rasterbar.so.10:_ZN10libtorrent17hash_failed_alertC1ERNS_3aux15stack_allocatorERKNS_14torrent_handleENS1_14strong_typedefIiNS1_15piece_index_tagEvEE
libtorrent-rasterbar.so.10:_ZN10libtorrent17hash_failed_alertC2ERNS_3aux15stack_allocatorERKNS_14torrent_handleENS1_14strong_typedefIiNS1_15piece_index_tagEvEE
libtorrent-rasterbar.so.10:_ZN10libtorrent17merkle_get_parentEi
libtorrent-rasterbar.so.10:_ZN10libtorrent17performance_alertC1ERNS_3aux15stack_allocatorERKNS_14torrent_handleENS0_21performance_warning_tE
libtorrent-rasterbar.so.10:_ZN10libtorrent17performance_alertC2ERNS_3aux15stack_allocatorERKNS_14torrent_handleENS0_21performance_warning_tE
libtorrent-rasterbar.so.10:_ZN10libtorrent17portmap_log_alertC1ERNS_3aux15stack_allocatorENS_17portmap_transportEPKc
libtorrent-rasterbar.so.10:_ZN10libtorrent17portmap_log_alertC2ERNS_3aux15stack_allocatorENS_17portmap_transportEPKc
libtorrent-rasterbar.so.10:_ZN10libtorrent17timestamp_history10add_sampleEjb
libtorrent-rasterbar.so.10:_ZN10libtorrent17timestamp_history11adjust_baseEi
libtorrent-rasterbar.so.10:_ZN10libtorrent17torrent_log_alertC1ERNS_3aux15stack_allocatorERKNS_14torrent_handleEPKcP13__va_list_tag
libtorrent-rasterbar.so.10:_ZN10libtorrent17torrent_log_alertC2ERNS_3aux15stack_allocatorERKNS_14torrent_handleEPKcP13__va_list_tag
libtorrent-rasterbar.so.10:_ZN10libtorrent17ut_pex_peer_store17was_introduced_byERKN5boost4asio2ip14basic_endpointINS3_3tcpEEE
libtorrent-rasterbar.so.10:_ZN10libtorrent17write_resume_dataERKNS_18add_torrent_paramsE
libtorrent-rasterbar.so.10:_ZN10libtorrent18add_torrent_paramsC1EOS0_
libtorrent-rasterbar.so.10:_ZN10libtorrent18add_torrent_paramsC1ERKS0_
libtorrent-rasterbar.so.10:_ZN10libtorrent18add_torrent_paramsC1ESt8functionIFPNS_17storage_interfaceERKNS_14storage_paramsERNS_9file_poolEEE
libtorrent-rasterbar.so.10:_ZN10libtorrent18add_torrent_paramsC2EOS0_
libtorrent-rasterbar.so.10:_ZN10libtorrent18add_torrent_paramsC2ERKS0_
libtorrent-rasterbar.so.10:_ZN10libtorrent18add_torrent_paramsC2ESt8functionIFPNS_17storage_interfaceERKNS_14storage_paramsERNS_9file_poolEEE
libtorrent-rasterbar.so.10:_ZN10libtorrent18add_torrent_paramsaSERKS0_
libtorrent-rasterbar.so.10:_ZN10libtorrent18bt_peer_connection10on_receiveERKN5boost6system10error_codeEm
libtorrent-rasterbar.so.10:_ZN10libtorrent18bt_peer_connection10on_requestEi
libtorrent-rasterbar.so.10:_ZN10libtorrent18bt_peer_connection10on_unchokeEi
libtorrent-rasterbar.so.10:_ZN10libtorrent18bt_peer_connection10write_haveENS_3aux14strong_typedefIiNS1_15piece_index_tagEvEE
libtorrent-rasterbar.so.10:_ZN10libtorrent18bt_peer_connection11on_bitfieldEi
libtorrent-rasterbar.so.10:_ZN10libtorrent18bt_peer_connection11on_dht_portEi
libtorrent-rasterbar.so.10:_ZN10libtorrent18bt_peer_connection11on_extendedEi
libtorrent-rasterbar.so.10:_ZN10libtorrent18bt_peer_connection11on_have_allEi
libtorrent-rasterbar.so.10:_ZN10libtorrent18bt_peer_connection11on_metadataEv
libtorrent-rasterbar.so.10:_ZN10libtorrent18bt_peer_connection11rc4_decryptENS_4spanIcEE
libtorrent-rasterbar.so.10:_ZN10libtorrent18bt_peer_connection11write_chokeEv
libtorrent-rasterbar.so.10:_ZN10libtorrent18bt_peer_connection11write_pieceERKNS_12peer_requestENS_18disk_buffer_holderE
libtorrent-rasterbar.so.10:_ZN10libtorrent18bt_peer_connection12on_connectedEv
libtorrent-rasterbar.so.10:_ZN10libtorrent18bt_peer_connection12on_have_noneEi
libtorrent-rasterbar.so.10:_ZN10libtorrent18bt_peer_connection12on_holepunchEv
libtorrent-rasterbar.so.10:_ZN10libtorrent18bt_peer_connection12write_cancelERKNS_12peer_requestE
libtorrent-rasterbar.so.10:_ZN10libtorrent18bt_peer_connection13on_interestedEi
libtorrent-rasterbar.so.10:_ZN10libtorrent18bt_peer_connection13write_requestERKNS_12peer_requestE
libtorrent-rasterbar.so.10:_ZN10libtorrent18bt_peer_connection13write_suggestENS_3aux14strong_typedefIiNS1_15piece_index_tagEvEE
libtorrent-rasterbar.so.10:_ZN10libtorrent18bt_peer_connection13write_unchokeEv
libtorrent-rasterbar.so.10:_ZN10libtorrent18bt_peer_connection14write_bitfieldEv
libtorrent-rasterbar.so.10:_ZN10libtorrent18bt_peer_connection14write_dht_portEi
libtorrent-rasterbar.so.10:_ZN10libtorrent18bt_peer_connection14write_dht_portEv
libtorrent-rasterbar.so.10:_ZN10libtorrent18bt_peer_connection14write_have_allEv
libtorrent-rasterbar.so.10:_ZN10libtorrent18bt_peer_connection14write_pe3_syncEv
libtorrent-rasterbar.so.10:_ZN10libtorrent18bt_peer_connection14write_pe4_syncEi
libtorrent-rasterbar.so.10:_ZN10libtorrent18bt_peer_connection15on_allowed_fastEi
libtorrent-rasterbar.so.10:_ZN10libtorrent18bt_peer_connection15on_receive_implEm
libtorrent-rasterbar.so.10:_ZN10libtorrent18bt_peer_connection15write_dont_haveENS_3aux14strong_typedefIiNS1_15piece_index_tagEvEE
libtorrent-rasterbar.so.10:_ZN10libtorrent18bt_peer_connection15write_handshakeEv
libtorrent-rasterbar.so.10:_ZN10libtorrent18bt_peer_connection15write_have_noneEv
libtorrent-rasterbar.so.10:_ZN10libtorrent18bt_peer_connection15write_keepaliveEv
libtorrent-rasterbar.so.10:_ZN10libtorrent18bt_peer_connection16dispatch_messageEi
libtorrent-rasterbar.so.10:_ZN10libtorrent18bt_peer_connection16hit_send_barrierENS_4spanINS1_IcEEEE
libtorrent-rasterbar.so.10:_ZN10libtorrent18bt_peer_connection16on_suggest_pieceEi
libtorrent-rasterbar.so.10:_ZN10libtorrent18bt_peer_connection16write_allow_fastENS_3aux14strong_typedefIiNS1_15piece_index_tagEvEE
libtorrent-rasterbar.so.10:_ZN10libtorrent18bt_peer_connection16write_extensionsEv
libtorrent-rasterbar.so.10:_ZN10libtorrent18bt_peer_connection16write_interestedEv
libtorrent-rasterbar.so.10:_ZN10libtorrent18bt_peer_connection16write_share_modeEv
libtorrent-rasterbar.so.10:_ZN10libtorrent18bt_peer_connection17on_not_interestedEi
libtorrent-rasterbar.so.10:_ZN10libtorrent18bt_peer_connection17on_reject_requestEi
libtorrent-rasterbar.so.10:_ZN10libtorrent18bt_peer_connection17write_pe1_2_dhkeyEv
libtorrent-rasterbar.so.10:_ZN10libtorrent18bt_peer_connection17write_upload_onlyEb
libtorrent-rasterbar.so.10:_ZN10libtorrent18bt_peer_connection18switch_recv_cryptoESt10shared_ptrINS_13crypto_pluginEE
libtorrent-rasterbar.so.10:_ZN10libtorrent18bt_peer_connection18switch_send_cryptoESt10shared_ptrINS_13crypto_pluginEE
libtorrent-rasterbar.so.10:_ZN10libtorrent18bt_peer_connection19write_holepunch_msgENS0_10hp_messageERKN5boost4asio2ip14basic_endpointINS4_3tcpEEENS0_8hp_errorE
libtorrent-rasterbar.so.10:_ZN10libtorrent18bt_peer_connection20write_not_interestedEv
libtorrent-rasterbar.so.10:_ZN10libtorrent18bt_peer_connection20write_reject_requestERKNS_12peer_requestE
libtorrent-rasterbar.so.10:_ZN10libtorrent18bt_peer_connection21on_extended_handshakeEv
libtorrent-rasterbar.so.10:_ZN10libtorrent18bt_peer_connection23write_pe_vc_cryptofieldENS_4spanIcEEii
libtorrent-rasterbar.so.10:_ZN10libtorrent18bt_peer_connection5startEv
libtorrent-rasterbar.so.10:_ZN10libtorrent18bt_peer_connection7on_haveEi
libtorrent-rasterbar.so.10:_ZN10libtorrent18bt_peer_connection7on_sentERKN5boost6system10error_codeEm
libtorrent-rasterbar.so.10:_ZN10libtorrent18bt_peer_connection8on_chokeEi
libtorrent-rasterbar.so.10:_ZN10libtorrent18bt_peer_connection8on_pieceEi
libtorrent-rasterbar.so.10:_ZN10libtorrent18bt_peer_connection9on_cancelEi
libtorrent-rasterbar.so.10:_ZN10libtorrent18bt_peer_connectionC1ERKNS_20peer_connection_argsE
libtorrent-rasterbar.so.10:_ZN10libtorrent18bt_peer_connectionC2ERKNS_20peer_connection_argsE
libtorrent-rasterbar.so.10:_ZN10libtorrent18bt_peer_connectionD0Ev
libtorrent-rasterbar.so.10:_ZN10libtorrent18bt_peer_connectionD1Ev
libtorrent-rasterbar.so.10:_ZN10libtorrent18bt_peer_connectionD2Ev
libtorrent-rasterbar.so.10:_ZN10libtorrent18cached_piece_entryC1Ev
libtorrent-rasterbar.so.10:_ZN10libtorrent18cached_piece_entryC2Ev
libtorrent-rasterbar.so.10:_ZN10libtorrent18cached_piece_entryD1Ev
libtorrent-rasterbar.so.10:_ZN10libtorrent18cached_piece_entryD2Ev
libtorrent-rasterbar.so.10:_ZN10libtorrent18client_fingerprintERKNS_8digest32ILl160EEE
libtorrent-rasterbar.so.10:_ZN10libtorrent18create_directoriesERKNSt7__cxx1112basic_stringIcSt11char_traitsIcESaIcEEERN5boost6system10error_codeE
libtorrent-rasterbar.so.10:_ZN10libtorrent18device_for_addressB5cxx11EN5boost4asio2ip7addressERNS1_10io_contextERNS0_6system10error_codeE
libtorrent-rasterbar.so.10:_ZN10libtorrent18dht_announce_alertC1ERNS_3aux15stack_allocatorERKN5boost4asio2ip7addressEiRKNS_8digest32ILl160EEE
libtorrent-rasterbar.so.10:_ZN10libtorrent18dht_announce_alertC2ERNS_3aux15stack_allocatorERKN5boost4asio2ip7addressEiRKNS_8digest32ILl160EEE
libtorrent-rasterbar.so.10:_ZN10libtorrent18disk_buffer_holder5resetEPcm
libtorrent-rasterbar.so.10:_ZN10libtorrent18disk_buffer_holder5resetERKNS_3aux21block_cache_referenceEPcm
libtorrent-rasterbar.so.10:_ZN10libtorrent18disk_buffer_holder7releaseEv
libtorrent-rasterbar.so.10:_ZN10libtorrent18disk_buffer_holderC1EOS0_
libtorrent-rasterbar.so.10:_ZN10libtorrent18disk_buffer_holderC1ERNS_26buffer_allocator_interfaceEPcm
libtorrent-rasterbar.so.10:_ZN10libtorrent18disk_buffer_holderC1ERNS_26buffer_allocator_interfaceERKNS_3aux21block_cache_referenceEPcm
libtorrent-rasterbar.so.10:_ZN10libtorrent18disk_buffer_holderC2EOS0_
libtorrent-rasterbar.so.10:_ZN10libtorrent18disk_buffer_holderC2ERNS_26buffer_allocator_interfaceEPcm
libtorrent-rasterbar.so.10:_ZN10libtorrent18disk_buffer_holderC2ERNS_26buffer_allocator_interfaceERKNS_3aux21block_cache_referenceEPcm
libtorrent-rasterbar.so.10:_ZN10libtorrent18disk_buffer_holderD1Ev
libtorrent-rasterbar.so.10:_ZN10libtorrent18disk_buffer_holderD2Ev
libtorrent-rasterbar.so.10:_ZN10libtorrent18ed25519_add_scalarEPhS0_PKh
libtorrent-rasterbar.so.10:_ZN10libtorrent18encryption_handler18switch_recv_cryptoESt10shared_ptrINS_13crypto_pluginEERNS_21crypto_receive_bufferE
libtorrent-rasterbar.so.10:_ZN10libtorrent18encryption_handler18switch_send_cryptoESt10shared_ptrINS_13crypto_pluginEEi
libtorrent-rasterbar.so.10:_ZN10libtorrent18encryption_handler7decryptERNS_21crypto_receive_bufferERm
libtorrent-rasterbar.so.10:_ZN10libtorrent18encryption_handler7encryptENS_4spanINS1_IcEEEE
libtorrent-rasterbar.so.10:_ZN10libtorrent18file_renamed_alertC1ERNS_3aux15stack_allocatorERKNS_14torrent_handleEN5boost17basic_string_viewIcSt11char_traitsIcEEENS1_14strong_typedefIiNS1_14file_index_tagEvEE
libtorrent-rasterbar.so.10:_ZN10libtorrent18file_renamed_alertC2ERNS_3aux15stack_allocatorERKNS_14torrent_handleEN5boost17basic_string_viewIcSt11char_traitsIcEEENS1_14strong_typedefIiNS1_14file_index_tagEvEE
libtorrent-rasterbar.so.10:_ZN10libtorrent18has_internet_routeEN5boost17basic_string_viewIcSt11char_traitsIcEEEiNS_4spanIKNS_8ip_routeEEE
libtorrent-rasterbar.so.10:_ZN10libtorrent18lexically_relativeB5cxx11EN5boost17basic_string_viewIcSt11char_traitsIcEEES4_
libtorrent-rasterbar.so.10:_ZN10libtorrent18merkle_get_siblingEi
libtorrent-rasterbar.so.10:_ZN10libtorrent18peer_blocked_alertC1ERNS_3aux15stack_allocatorERKNS_14torrent_handleERKN5boost4asio2ip14basic_endpointINS9_3tcpEEEi
libtorrent-rasterbar.so.10:_ZN10libtorrent18peer_blocked_alertC2ERNS_3aux15stack_allocatorERKNS_14torrent_handleERKN5boost4asio2ip14basic_endpointINS9_3tcpEEEi
libtorrent-rasterbar.so.10:_ZN10libtorrent18peer_connect_alertC1ERNS_3aux15stack_allocatorENS_14torrent_handleERKN5boost4asio2ip14basic_endpointINS7_3tcpEEERKNS_8digest32ILl160EEEi
libtorrent-rasterbar.so.10:_ZN10libtorrent18peer_connect_alertC2ERNS_3aux15stack_allocatorENS_14torrent_handleERKN5boost4asio2ip14basic_endpointINS7_3tcpEEERKNS_8digest32ILl160EEEi
libtorrent-rasterbar.so.10:_ZN10libtorrent18peer_snubbed_alertC1ERNS_3aux15stack_allocatorENS_14torrent_handleERKN5boost4asio2ip14basic_endpointINS7_3tcpEEERKNS_8digest32ILl160EEE
libtorrent-rasterbar.so.10:_ZN10libtorrent18peer_snubbed_alertC2ERNS_3aux15stack_allocatorENS_14torrent_handleERKN5boost4asio2ip14basic_endpointINS7_3tcpEEERKNS_8digest32ILl160EEE
libtorrent-rasterbar.so.10:_ZN10libtorrent18scrape_reply_alertC1ERNS_3aux15stack_allocatorERKNS_14torrent_handleERKN5boost4asio2ip14basic_endpointINS9_3tcpEEEiiNS7_17basic_string_viewIcSt11char_traitsIcEEE
libtorrent-rasterbar.so.10:_ZN10libtorrent18scrape_reply_alertC2ERNS_3aux15stack_allocatorERKNS_14torrent_handleERKN5boost4asio2ip14basic_endpointINS9_3tcpEEEiiNS7_17basic_string_viewIcSt11char_traitsIcEEE
libtorrent-rasterbar.so.10:_ZN10libtorrent18state_update_alertC1ERNS_3aux15stack_allocatorESt6vectorINS_14torrent_statusESaIS5_EE
libtorrent-rasterbar.so.10:_ZN10libtorrent18state_update_alertC2ERNS_3aux15stack_allocatorESt6vectorINS_14torrent_statusESaIS5_EE
libtorrent-rasterbar.so.10:_ZN10libtorrent18tracker_connection10sent_bytesEi
libtorrent-rasterbar.so.10:_ZN10libtorrent18tracker_connection14received_bytesEi
libtorrent-rasterbar.so.10:_ZN10libtorrent18tracker_connection4failERKN5boost6system10error_codeEPKcNSt6chrono8durationIiSt5ratioILl1ELl1EEEESC_
libtorrent-rasterbar.so.10:_ZN10libtorrent18tracker_connection9fail_implERKN5boost6system10error_codeENSt7__cxx1112basic_stringIcSt11char_traitsIcESaIcEEENSt6chrono8durationIiSt5ratioILl1ELl1EEEESG_
libtorrent-rasterbar.so.10:_ZN10libtorrent18tracker_connectionC1ERNS_15tracker_managerERKNS_15tracker_requestERN5boost4asio10io_contextESt8weak_ptrINS_16request_callbackEE
libtorrent-rasterbar.so.10:_ZN10libtorrent18tracker_connectionC2ERNS_15tracker_managerERKNS_15tracker_requestERN5boost4asio10io_contextESt8weak_ptrINS_16request_callbackEE
libtorrent-rasterbar.so.10:_ZN10libtorrent19block_timeout_alertC1ERNS_3aux15stack_allocatorENS_14torrent_handleERKN5boost4asio2ip14basic_endpointINS7_3tcpEEERKNS_8digest32ILl160EEEiNS1_14strong_typedefIiNS1_15piece_index_tagEvEE
libtorrent-rasterbar.so.10:_ZN10libtorrent19block_timeout_alertC2ERNS_3aux15stack_allocatorENS_14torrent_handleERKN5boost4asio2ip14basic_endpointINS7_3tcpEEERKNS_8digest32ILl160EEEiNS1_14strong_typedefIiNS1_15piece_index_tagEvEE
libtorrent-rasterbar.so.10:_ZN10libtorrent19cache_flushed_alertC1ERNS_3aux15stack_allocatorERKNS_14torrent_handleE
libtorrent-rasterbar.so.10:_ZN10libtorrent19cache_flushed_alertC2ERNS_3aux15stack_allocatorERKNS_14torrent_handleE
libtorrent-rasterbar.so.10:_ZN10libtorrent19convert_from_nativeERKNSt7__cxx1112basic_stringIcSt11char_traitsIcESaIcEEE
libtorrent-rasterbar.so.10:_ZN10libtorrent19dht_bootstrap_alertC1ERNS_3aux15stack_allocatorE
libtorrent-rasterbar.so.10:_ZN10libtorrent19dht_bootstrap_alertC2ERNS_3aux15stack_allocatorE
libtorrent-rasterbar.so.10:_ZN10libtorrent19dht_get_peers_alertC1ERNS_3aux15stack_allocatorERKNS_8digest32ILl160EEE
libtorrent-rasterbar.so.10:_ZN10libtorrent19dht_get_peers_alertC2ERNS_3aux15stack_allocatorERKNS_8digest32ILl160EEE
libtorrent-rasterbar.so.10:_ZN10libtorrent19disk_io_thread_pool10job_queuedEi
libtorrent-rasterbar.so.10:_ZN10libtorrent19disk_io_thread_pool12stop_threadsEi
libtorrent-rasterbar.so.10:_ZN10libtorrent19disk_io_thread_pool13thread_activeEv
libtorrent-rasterbar.so.10:_ZN10libtorrent19disk_io_thread_pool15first_thread_idEv
libtorrent-rasterbar.so.10:_ZN10libtorrent19disk_io_thread_pool15set_max_threadsEi
libtorrent-rasterbar.so.10:_ZN10libtorrent19disk_io_thread_pool15try_thread_exitENSt6thread2idE
libtorrent-rasterbar.so.10:_ZN10libtorrent19disk_io_thread_pool17reap_idle_threadsERKN5boost6system10error_codeE
libtorrent-rasterbar.so.10:_ZN10libtorrent19disk_io_thread_pool5abortEb
libtorrent-rasterbar.so.10:_ZN10libtorrent19disk_io_thread_poolC1ERNS_21pool_thread_interfaceERN5boost4asio10io_contextE
libtorrent-rasterbar.so.10:_ZN10libtorrent19disk_io_thread_poolC2ERNS_21pool_thread_interfaceERN5boost4asio10io_contextE
libtorrent-rasterbar.so.10:_ZN10libtorrent19disk_io_thread_poolD1Ev
libtorrent-rasterbar.so.10:_ZN10libtorrent19disk_io_thread_poolD2Ev
libtorrent-rasterbar.so.10:_ZN10libtorrent19enum_net_interfacesERN5boost4asio10io_contextERNS0_6system10error_codeE
libtorrent-rasterbar.so.10:_ZN10libtorrent19libtorrent_categoryEv
libtorrent-rasterbar.so.10:_ZN10libtorrent19listen_failed_alertC1ERNS_3aux15stack_allocatorEN5boost17basic_string_viewIcSt11char_traitsIcEEENS_11operation_tERKNS4_6system10error_codeENS_13socket_type_tE
libtorrent-rasterbar.so.10:_ZN10libtorrent19listen_failed_alertC1ERNS_3aux15stack_allocatorEN5boost17basic_string_viewIcSt11char_traitsIcEEERKNS4_4asio2ip14basic_endpointINSA_3tcpEEENS_11operation_tERKNS4_6system10error_codeENS_13socket_type_tE
libtorrent-rasterbar.so.10:_ZN10libtorrent19listen_failed_alertC1ERNS_3aux15stack_allocatorEN5boost17basic_string_viewIcSt11char_traitsIcEEERKNS4_4asio2ip14basic_endpointINSA_3udpEEENS_11operation_tERKNS4_6system10error_codeENS_13socket_type_tE
libtorrent-rasterbar.so.10:_ZN10libtorrent19listen_failed_alertC1ERNS_3aux15stack_allocatorEN5boost17basic_string_viewIcSt11char_traitsIcEEERKNS4_4asio2ip7addressEiNS_11operation_tERKNS4_6system10error_codeENS_13socket_type_tE
libtorrent-rasterbar.so.10:_ZN10libtorrent19listen_failed_alertC2ERNS_3aux15stack_allocatorEN5boost17basic_string_viewIcSt11char_traitsIcEEENS_11operation_tERKNS4_6system10error_codeENS_13socket_type_tE
libtorrent-rasterbar.so.10:_ZN10libtorrent19listen_failed_alertC2ERNS_3aux15stack_allocatorEN5boost17basic_string_viewIcSt11char_traitsIcEEERKNS4_4asio2ip14basic_endpointINSA_3tcpEEENS_11operation_tERKNS4_6system10error_codeENS_13socket_type_tE
libtorrent-rasterbar.so.10:_ZN10libtorrent19listen_failed_alertC2ERNS_3aux15stack_allocatorEN5boost17basic_string_viewIcSt11char_traitsIcEEERKNS4_4asio2ip14basic_endpointINSA_3udpEEENS_11operation_tERKNS4_6system10error_codeENS_13socket_type_tE
libtorrent-rasterbar.so.10:_ZN10libtorrent19listen_failed_alertC2ERNS_3aux15stack_allocatorEN5boost17basic_string_viewIcSt11char_traitsIcEEERKNS4_4asio2ip7addressEiNS_11operation_tERKNS4_6system10error_codeENS_13socket_type_tE
libtorrent-rasterbar.so.10:_ZN10libtorrent19load_pack_from_dictERKNS_12bdecode_nodeE
libtorrent-rasterbar.so.10:_ZN10libtorrent19portmap_error_alertC1ERNS_3aux15stack_allocatorENS1_14strong_typedefIiNS_16port_mapping_tagEvEENS_17portmap_transportERKN5boost6system10error_codeE
libtorrent-rasterbar.so.10:_ZN10libtorrent19portmap_error_alertC2ERNS_3aux15stack_allocatorENS1_14strong_typedefIiNS_16port_mapping_tagEvEENS_17portmap_transportERKN5boost6system10error_codeE
libtorrent-rasterbar.so.10:_ZN10libtorrent19read_session_paramsERKNS_12bdecode_nodeENS_5flags13bitfield_flagIjNS_20save_state_flags_tagEvEE
libtorrent-rasterbar.so.10:_ZN10libtorrent19scrape_failed_alertC1ERNS_3aux15stack_allocatorERKNS_14torrent_handleERKN5boost4asio2ip14basic_endpointINS9_3tcpEEENS7_17basic_string_viewIcSt11char_traitsIcEEERKNS7_6system10error_codeE
libtorrent-rasterbar.so.10:_ZN10libtorrent19scrape_failed_alertC1ERNS_3aux15stack_allocatorERKNS_14torrent_handleERKN5boost4asio2ip14basic_endpointINS9_3tcpEEENS7_17basic_string_viewIcSt11char_traitsIcEEESI_
libtorrent-rasterbar.so.10:_ZN10libtorrent19scrape_failed_alertC2ERNS_3aux15stack_allocatorERKNS_14torrent_handleERKN5boost4asio2ip14basic_endpointINS9_3tcpEEENS7_17basic_string_viewIcSt11char_traitsIcEEERKNS7_6system10error_codeE
libtorrent-rasterbar.so.10:_ZN10libtorrent19scrape_failed_alertC2ERNS_3aux15stack_allocatorERKNS_14torrent_handleERKN5boost4asio2ip14basic_endpointINS9_3tcpEEENS7_17basic_string_viewIcSt11char_traitsIcEEESI_
libtorrent-rasterbar.so.10:_ZN10libtorrent19session_error_alertC1ERNS_3aux15stack_allocatorEN5boost6system10error_codeENS4_17basic_string_viewIcSt11char_traitsIcEEE
libtorrent-rasterbar.so.10:_ZN10libtorrent19session_error_alertC2ERNS_3aux15stack_allocatorEN5boost6system10error_codeENS4_17basic_string_viewIcSt11char_traitsIcEEE
libtorrent-rasterbar.so.10:_ZN10libtorrent19session_stats_alertC1ERNS_3aux15stack_allocatorERKNS_8countersE
libtorrent-rasterbar.so.10:_ZN10libtorrent19session_stats_alertC2ERNS_3aux15stack_allocatorERKNS_8countersE
libtorrent-rasterbar.so.10:_ZN10libtorrent19state_changed_alertC1ERNS_3aux15stack_allocatorERKNS_14torrent_handleENS_14torrent_status7state_tES8_
libtorrent-rasterbar.so.10:_ZN10libtorrent19state_changed_alertC2ERNS_3aux15stack_allocatorERKNS_14torrent_handleENS_14torrent_status7state_tES8_
libtorrent-rasterbar.so.10:_ZN10libtorrent19storage_moved_alertC1ERNS_3aux15stack_allocatorERKNS_14torrent_handleEN5boost17basic_string_viewIcSt11char_traitsIcEEE
libtorrent-rasterbar.so.10:_ZN10libtorrent19storage_moved_alertC2ERNS_3aux15stack_allocatorERKNS_14torrent_handleEN5boost17basic_string_viewIcSt11char_traitsIcEEE
libtorrent-rasterbar.so.10:_ZN10libtorrent19torrent_added_alertC1ERNS_3aux15stack_allocatorERKNS_14torrent_handleE
libtorrent-rasterbar.so.10:_ZN10libtorrent19torrent_added_alertC2ERNS_3aux15stack_allocatorERKNS_14torrent_handleE
libtorrent-rasterbar.so.10:_ZN10libtorrent19torrent_error_alertC1ERNS_3aux15stack_allocatorERKNS_14torrent_handleERKN5boost6system10error_codeENS7_17basic_string_viewIcSt11char_traitsIcEEE
libtorrent-rasterbar.so.10:_ZN10libtorrent19torrent_error_alertC2ERNS_3aux15stack_allocatorERKNS_14torrent_handleERKN5boost6system10error_codeENS7_17basic_string_viewIcSt11char_traitsIcEEE
libtorrent-rasterbar.so.10:_ZN10libtorrent19torrent_hot_membersC1ERNS_3aux17session_interfaceERKNS_18add_torrent_paramsEb
libtorrent-rasterbar.so.10:_ZN10libtorrent19torrent_hot_membersC2ERNS_3aux17session_interfaceERKNS_18add_torrent_paramsEb
libtorrent-rasterbar.so.10:_ZN10libtorrent19tracker_error_alertC1ERNS_3aux15stack_allocatorERKNS_14torrent_handleERKN5boost4asio2ip14basic_endpointINS9_3tcpEEEiNS7_17basic_string_viewIcSt11char_traitsIcEEERKNS7_6system10error_codeESI_
libtorrent-rasterbar.so.10:_ZN10libtorrent19tracker_error_alertC2ERNS_3aux15stack_allocatorERKNS_14torrent_handleERKN5boost4asio2ip14basic_endpointINS9_3tcpEEEiNS7_17basic_string_viewIcSt11char_traitsIcEEERKNS7_6system10error_codeESI_
libtorrent-rasterbar.so.10:_ZN10libtorrent19tracker_reply_alertC1ERNS_3aux15stack_allocatorERKNS_14torrent_handleERKN5boost4asio2ip14basic_endpointINS9_3tcpEEEiNS7_17basic_string_viewIcSt11char_traitsIcEEE
libtorrent-rasterbar.so.10:_ZN10libtorrent19tracker_reply_alertC2ERNS_3aux15stack_allocatorERKNS_14torrent_handleERKN5boost4asio2ip14basic_endpointINS9_3tcpEEEiNS7_17basic_string_viewIcSt11char_traitsIcEEE
libtorrent-rasterbar.so.10:_ZN10libtorrent19web_connection_base12on_connectedEv
libtorrent-rasterbar.so.10:_ZN10libtorrent19web_connection_base5startEv
libtorrent-rasterbar.so.10:_ZN10libtorrent19web_connection_base7on_sentERKN5boost6system10error_codeEm
libtorrent-rasterbar.so.10:_ZN10libtorrent19web_connection_baseC1ERKNS_20peer_connection_argsERNS_10web_seed_tE
libtorrent-rasterbar.so.10:_ZN10libtorrent19web_connection_baseC2ERKNS_20peer_connection_argsERNS_10web_seed_tE
libtorrent-rasterbar.so.10:_ZN10libtorrent19web_connection_baseD0Ev
libtorrent-rasterbar.so.10:_ZN10libtorrent19web_connection_baseD1Ev
libtorrent-rasterbar.so.10:_ZN10libtorrent19web_connection_baseD2Ev
libtorrent-rasterbar.so.10:_ZN10libtorrent19web_peer_connection10disconnectERKN5boost6system10error_codeENS_11operation_tENS_3aux14strong_typedefIhNS_23disconnect_severity_tagEvEE
libtorrent-rasterbar.so.10:_ZN10libtorrent19web_peer_connection10on_receiveERKN5boost6system10error_codeEm
libtorrent-rasterbar.so.10:_ZN10libtorrent19web_peer_connection12handle_errorEi
libtorrent-rasterbar.so.10:_ZN10libtorrent19web_peer_connection12on_connectedEv
libtorrent-rasterbar.so.10:_ZN10libtorrent19web_peer_connection13write_requestERKNS_12peer_requestE
libtorrent-rasterbar.so.10:_ZN10libtorrent19web_peer_connection14handle_padfileEv
libtorrent-rasterbar.so.10:_ZN10libtorrent19web_peer_connection15handle_redirectEi
libtorrent-rasterbar.so.10:_ZN10libtorrent19web_peer_connection15incoming_zeroesEi
libtorrent-rasterbar.so.10:_ZN10libtorrent19web_peer_connection16incoming_payloadEPKci
libtorrent-rasterbar.so.10:_ZN10libtorrent19web_peer_connection18on_receive_padfileEv
libtorrent-rasterbar.so.10:_ZN10libtorrent19web_peer_connection19maybe_harvest_pieceEv
libtorrent-rasterbar.so.10:_ZN10libtorrent19web_peer_connection21received_invalid_dataENS_3aux14strong_typedefIiNS1_15piece_index_tagEvEEb
libtorrent-rasterbar.so.10:_ZN10libtorrent19web_peer_connectionC1ERKNS_20peer_connection_argsERNS_10web_seed_tE
libtorrent-rasterbar.so.10:_ZN10libtorrent19web_peer_connectionC2ERKNS_20peer_connection_argsERNS_10web_seed_tE
libtorrent-rasterbar.so.10:_ZN10libtorrent20alerts_dropped_alertC1ERNS_3aux15stack_allocatorERKSt6bitsetILm97EE
libtorrent-rasterbar.so.10:_ZN10libtorrent20alerts_dropped_alertC2ERNS_3aux15stack_allocatorERKSt6bitsetILm97EE
libtorrent-rasterbar.so.10:_ZN10libtorrent20allocate_string_copyEN5boost17basic_string_viewIcSt11char_traitsIcEEE
libtorrent-rasterbar.so.10:_ZN10libtorrent20anonymous_mode_alertC1ERNS_3aux15stack_allocatorERKNS_14torrent_handleEiN5boost17basic_string_viewIcSt11char_traitsIcEEE
libtorrent-rasterbar.so.10:_ZN10libtorrent20anonymous_mode_alertC2ERNS_3aux15stack_allocatorERKNS_14torrent_handleEiN5boost17basic_string_viewIcSt11char_traitsIcEEE
libtorrent-rasterbar.so.10:_ZN10libtorrent20block_finished_alertC1ERNS_3aux15stack_allocatorENS_14torrent_handleERKN5boost4asio2ip14basic_endpointINS7_3tcpEEERKNS_8digest32ILl160EEEiNS1_14strong_typedefIiNS1_15piece_index_tagEvEE
libtorrent-rasterbar.so.10:_ZN10libtorrent20block_finished_alertC2ERNS_3aux15stack_allocatorENS_14torrent_handleERKN5boost4asio2ip14basic_endpointINS7_3tcpEEERKNS_8digest32ILl160EEEiNS1_14strong_typedefIiNS1_15piece_index_tagEvEE
libtorrent-rasterbar.so.10:_ZN10libtorrent20block_uploaded_alertC1ERNS_3aux15stack_allocatorENS_14torrent_handleERKN5boost4asio2ip14basic_endpointINS7_3tcpEEERKNS_8digest32ILl160EEEiNS1_14strong_typedefIiNS1_15piece_index_tagEvEE
libtorrent-rasterbar.so.10:_ZN10libtorrent20block_uploaded_alertC2ERNS_3aux15stack_allocatorENS_14torrent_handleERKN5boost4asio2ip14basic_endpointINS7_3tcpEEERKNS_8digest32ILl160EEEiNS1_14strong_typedefIiNS1_15piece_index_tagEvEE
libtorrent-rasterbar.so.10:_ZN10libtorrent20create_ut_pex_pluginERKNS_14torrent_handleEPv
libtorrent-rasterbar.so.10:_ZN10libtorrent20dht_live_nodes_alertC1ERNS_3aux15stack_allocatorERKNS_8digest32ILl160EEERKSt6vectorISt4pairIS5_N5boost4asio2ip14basic_endpointINSC_3udpEEEESaISG_EE
libtorrent-rasterbar.so.10:_ZN10libtorrent20dht_live_nodes_alertC2ERNS_3aux15stack_allocatorERKNS_8digest32ILl160EEERKSt6vectorISt4pairIS5_N5boost4asio2ip14basic_endpointINSC_3udpEEEESaISG_EE
libtorrent-rasterbar.so.10:_ZN10libtorrent20ed25519_key_exchangeEPhPKhS2_
libtorrent-rasterbar.so.10:_ZN10libtorrent20file_completed_alertC1ERNS_3aux15stack_allocatorERKNS_14torrent_handleENS1_14strong_typedefIiNS1_14file_index_tagEvEE
libtorrent-rasterbar.so.10:_ZN10libtorrent20file_completed_alertC2ERNS_3aux15stack_allocatorERKNS_14torrent_handleENS1_14strong_typedefIiNS1_14file_index_tagEvEE
libtorrent-rasterbar.so.10:_ZN10libtorrent20generate_fingerprintENSt7__cxx1112basic_stringIcSt11char_traitsIcESaIcEEEiiii
libtorrent-rasterbar.so.10:_ZN10libtorrent20http_seed_connection10disconnectERKN5boost6system10error_codeENS_11operation_tENS_3aux14strong_typedefIhNS_23disconnect_severity_tagEvEE
libtorrent-rasterbar.so.10:_ZN10libtorrent20http_seed_connection10on_receiveERKN5boost6system10error_codeEm
libtorrent-rasterbar.so.10:_ZN10libtorrent20http_seed_connection12on_connectedEv
libtorrent-rasterbar.so.10:_ZN10libtorrent20http_seed_connection13write_requestERKNS_12peer_requestE
libtorrent-rasterbar.so.10:_ZN10libtorrent20http_seed_connectionC1ERKNS_20peer_connection_argsERNS_10web_seed_tE
libtorrent-rasterbar.so.10:_ZN10libtorrent20http_seed_connectionC2ERKNS_20peer_connection_argsERNS_10web_seed_tE
libtorrent-rasterbar.so.10:_ZN10libtorrent20parse_url_componentsENSt7__cxx1112basic_stringIcSt11char_traitsIcESaIcEEERN5boost6system10error_codeE
libtorrent-rasterbar.so.10:_ZN10libtorrent20parse_utf8_codepointEN5boost17basic_string_viewIcSt11char_traitsIcEEE
libtorrent-rasterbar.so.10:_ZN10libtorrent20peer_unsnubbed_alertC1ERNS_3aux15stack_allocatorENS_14torrent_handleERKN5boost4asio2ip14basic_endpointINS7_3tcpEEERKNS_8digest32ILl160EEE
libtorrent-rasterbar.so.10:_ZN10libtorrent20peer_unsnubbed_alertC2ERNS_3aux15stack_allocatorENS_14torrent_handleERKN5boost4asio2ip14basic_endpointINS7_3tcpEEERKNS_8digest32ILl160EEE
libtorrent-rasterbar.so.10:_ZN10libtorrent20piece_finished_alertC1ERNS_3aux15stack_allocatorERKNS_14torrent_handleENS1_14strong_typedefIiNS1_15piece_index_tagEvEE
libtorrent-rasterbar.so.10:_ZN10libtorrent20piece_finished_alertC2ERNS_3aux15stack_allocatorERKNS_14torrent_handleENS1_14strong_typedefIiNS1_15piece_index_tagEvEE
libtorrent-rasterbar.so.10:_ZN10libtorrent20string_equal_no_caseEN5boost17basic_string_viewIcSt11char_traitsIcEEES4_
libtorrent-rasterbar.so.10:_ZN10libtorrent20torrent_paused_alertC1ERNS_3aux15stack_allocatorERKNS_14torrent_handleE
libtorrent-rasterbar.so.10:_ZN10libtorrent20torrent_paused_alertC2ERNS_3aux15stack_allocatorERKNS_14torrent_handleE
libtorrent-rasterbar.so.10:_ZN10libtorrent20torrent_update_alertC1ERNS_3aux15stack_allocatorENS_14torrent_handleERKNS_8digest32ILl160EEES8_
libtorrent-rasterbar.so.10:_ZN10libtorrent20torrent_update_alertC2ERNS_3aux15stack_allocatorENS_14torrent_handleERKNS_8digest32ILl160EEES8_
libtorrent-rasterbar.so.10:_ZN10libtorrent20unwanted_block_alertC1ERNS_3aux15stack_allocatorENS_14torrent_handleERKN5boost4asio2ip14basic_endpointINS7_3tcpEEERKNS_8digest32ILl160EEEiNS1_14strong_typedefIiNS1_15piece_index_tagEvEE
libtorrent-rasterbar.so.10:_ZN10libtorrent20unwanted_block_alertC2ERNS_3aux15stack_allocatorENS_14torrent_handleERKN5boost4asio2ip14basic_endpointINS7_3tcpEEERKNS_8digest32ILl160EEEiNS1_14strong_typedefIiNS1_15piece_index_tagEvEE
libtorrent-rasterbar.so.10:_ZN10libtorrent21append_utf8_codepointERNSt7__cxx1112basic_stringIcSt11char_traitsIcESaIcEEEi
libtorrent-rasterbar.so.10:_ZN10libtorrent21convert_path_to_posixERNSt7__cxx1112basic_stringIcSt11char_traitsIcESaIcEEE
libtorrent-rasterbar.so.10:_ZN10libtorrent21high_performance_seedEv
libtorrent-rasterbar.so.10:_ZN10libtorrent21invalid_request_alertC1ERNS_3aux15stack_allocatorERKNS_14torrent_handleERKN5boost4asio2ip14basic_endpointINS9_3tcpEEERKNS_8digest32ILl160EEERKNS_12peer_requestEbbb
libtorrent-rasterbar.so.10:_ZN10libtorrent21invalid_request_alertC2ERNS_3aux15stack_allocatorERKNS_14torrent_handleERKN5boost4asio2ip14basic_endpointINS9_3tcpEEERKNS_8digest32ILl160EEERKNS_12peer_requestEbbb
libtorrent-rasterbar.so.10:_ZN10libtorrent21metadata_failed_alertC1ERNS_3aux15stack_allocatorERKNS_14torrent_handleERKN5boost6system10error_codeE
libtorrent-rasterbar.so.10:_ZN10libtorrent21metadata_failed_alertC2ERNS_3aux15stack_allocatorERKNS_14torrent_handleERKN5boost6system10error_codeE
libtorrent-rasterbar.so.10:_ZN10libtorrent21request_dropped_alertC1ERNS_3aux15stack_allocatorENS_14torrent_handleERKN5boost4asio2ip14basic_endpointINS7_3tcpEEERKNS_8digest32ILl160EEEiNS1_14strong_typedefIiNS1_15piece_index_tagEvEE
libtorrent-rasterbar.so.10:_ZN10libtorrent21request_dropped_alertC2ERNS_3aux15stack_allocatorENS_14torrent_handleERKN5boost4asio2ip14basic_endpointINS7_3tcpEEERKNS_8digest32ILl160EEEiNS1_14strong_typedefIiNS1_15piece_index_tagEvEE
libtorrent-rasterbar.so.10:_ZN10libtorrent21save_settings_to_dictERKNS_3aux16session_settingsERSt3mapINSt7__cxx1112basic_stringIcSt11char_traitsIcESaIcEEENS_5entryENS0_12strview_lessESaISt4pairIKSA_SB_EEE
libtorrent-rasterbar.so.10:_ZN10libtorrent21session_stats_metricsEv
libtorrent-rasterbar.so.10:_ZN10libtorrent21string_begins_no_caseEPKcS1_
libtorrent-rasterbar.so.10:_ZN10libtorrent21torrent_checked_alertC1ERNS_3aux15stack_allocatorERKNS_14torrent_handleE
libtorrent-rasterbar.so.10:_ZN10libtorrent21torrent_checked_alertC2ERNS_3aux15stack_allocatorERKNS_14torrent_handleE
libtorrent-rasterbar.so.10:_ZN10libtorrent21torrent_deleted_alertC1ERNS_3aux15stack_allocatorERKNS_14torrent_handleERKNS_8digest32ILl160EEE
libtorrent-rasterbar.so.10:_ZN10libtorrent21torrent_deleted_alertC2ERNS_3aux15stack_allocatorERKNS_14torrent_handleERKNS_8digest32ILl160EEE
libtorrent-rasterbar.so.10:_ZN10libtorrent21torrent_removed_alertC1ERNS_3aux15stack_allocatorERKNS_14torrent_handleERKNS_8digest32ILl160EEE
libtorrent-rasterbar.so.10:_ZN10libtorrent21torrent_removed_alertC2ERNS_3aux15stack_allocatorERKNS_14torrent_handleERKNS_8digest32ILl160EEE
libtorrent-rasterbar.so.10:_ZN10libtorrent21torrent_resumed_alertC1ERNS_3aux15stack_allocatorERKNS_14torrent_handleE
libtorrent-rasterbar.so.10:_ZN10libtorrent21torrent_resumed_alertC2ERNS_3aux15stack_allocatorERKNS_14torrent_handleE
libtorrent-rasterbar.so.10:_ZN10libtorrent21tracker_warning_alertC1ERNS_3aux15stack_allocatorERKNS_14torrent_handleERKN5boost4asio2ip14basic_endpointINS9_3tcpEEENS7_17basic_string_viewIcSt11char_traitsIcEEESI_
libtorrent-rasterbar.so.10:_ZN10libtorrent21tracker_warning_alertC2ERNS_3aux15stack_allocatorERKNS_14torrent_handleERKN5boost4asio2ip14basic_endpointINS9_3tcpEEENS7_17basic_string_viewIcSt11char_traitsIcEEESI_
libtorrent-rasterbar.so.10:_ZN10libtorrent21write_resume_data_bufERKNS_18add_torrent_paramsE
libtorrent-rasterbar.so.10:_ZN10libtorrent22dht_mutable_item_alertC1ERNS_3aux15stack_allocatorERKSt5arrayIcLm32EERKS4_IcLm64EElN5boost17basic_string_viewIcSt11char_traitsIcEEERKNS_5entryEb
libtorrent-rasterbar.so.10:_ZN10libtorrent22dht_mutable_item_alertC2ERNS_3aux15stack_allocatorERKSt5arrayIcLm32EERKS4_IcLm64EElN5boost17basic_string_viewIcSt11char_traitsIcEEERKNS_5entryEb
libtorrent-rasterbar.so.10:_ZN10libtorrent22ed25519_create_keypairEPhS0_PKh
libtorrent-rasterbar.so.10:_ZN10libtorrent22incoming_request_alertC1ERNS_3aux15stack_allocatorENS_12peer_requestENS_14torrent_handleERKN5boost4asio2ip14basic_endpointINS8_3tcpEEERKNS_8digest32ILl160EEE
libtorrent-rasterbar.so.10:_ZN10libtorrent22incoming_request_alertC2ERNS_3aux15stack_allocatorENS_12peer_requestENS_14torrent_handleERKN5boost4asio2ip14basic_endpointINS8_3tcpEEERKNS_8digest32ILl160EEE
libtorrent-rasterbar.so.10:_ZN10libtorrent22listen_succeeded_alertC1ERNS_3aux15stack_allocatorERKN5boost4asio2ip14basic_endpointINS6_3tcpEEENS_13socket_type_tE
libtorrent-rasterbar.so.10:_ZN10libtorrent22listen_succeeded_alertC1ERNS_3aux15stack_allocatorERKN5boost4asio2ip14basic_endpointINS6_3udpEEENS_13socket_type_tE
libtorrent-rasterbar.so.10:_ZN10libtorrent22listen_succeeded_alertC1ERNS_3aux15stack_allocatorERKN5boost4asio2ip7addressEiNS_13socket_type_tE
libtorrent-rasterbar.so.10:_ZN10libtorrent22listen_succeeded_alertC2ERNS_3aux15stack_allocatorERKN5boost4asio2ip14basic_endpointINS6_3tcpEEENS_13socket_type_tE
libtorrent-rasterbar.so.10:_ZN10libtorrent22listen_succeeded_alertC2ERNS_3aux15stack_allocatorERKN5boost4asio2ip14basic_endpointINS6_3udpEEENS_13socket_type_tE
libtorrent-rasterbar.so.10:_ZN10libtorrent22listen_succeeded_alertC2ERNS_3aux15stack_allocatorERKN5boost4asio2ip7addressEiNS_13socket_type_tE
libtorrent-rasterbar.so.10:_ZN10libtorrent22parse_tracker_responseENS_4spanIKcEERN5boost6system10error_codeEiRKNS_8digest32ILl160EEE
libtorrent-rasterbar.so.10:_ZN10libtorrent22peer_connection_handle10disconnectERKN5boost6system10error_codeENS_11operation_tENS_3aux14strong_typedefIhNS_23disconnect_severity_tagEvEE
libtorrent-rasterbar.so.10:_ZN10libtorrent22peer_connection_handle11send_bufferEPKci
libtorrent-rasterbar.so.10:_ZN10libtorrent22peer_connection_handle13add_extensionESt10shared_ptrINS_11peer_pluginEE
libtorrent-rasterbar.so.10:_ZN10libtorrent22peer_connection_handle15choke_this_peerEv
libtorrent-rasterbar.so.10:_ZN10libtorrent22peer_connection_handle23maybe_unchoke_this_peerEv
libtorrent-rasterbar.so.10:_ZN10libtorrent22save_resume_data_alertC1ERNS_3aux15stack_allocatorEONS_18add_torrent_paramsERKNS_14torrent_handleE
libtorrent-rasterbar.so.10:_ZN10libtorrent22save_resume_data_alertC2ERNS_3aux15stack_allocatorEONS_18add_torrent_paramsERKNS_14torrent_handleE
libtorrent-rasterbar.so.10:_ZN10libtorrent22torrent_finished_alertC1ERNS_3aux15stack_allocatorENS_14torrent_handleE
libtorrent-rasterbar.so.10:_ZN10libtorrent22torrent_finished_alertC2ERNS_3aux15stack_allocatorENS_14torrent_handleE
libtorrent-rasterbar.so.10:_ZN10libtorrent22torrent_peer_allocator15free_peer_entryEPNS_12torrent_peerE
libtorrent-rasterbar.so.10:_ZN10libtorrent22torrent_peer_allocator19allocate_peer_entryEi
libtorrent-rasterbar.so.10:_ZN10libtorrent22tracker_announce_alertC1ERNS_3aux15stack_allocatorERKNS_14torrent_handleERKN5boost4asio2ip14basic_endpointINS9_3tcpEEENS7_17basic_string_viewIcSt11char_traitsIcEEEi
libtorrent-rasterbar.so.10:_ZN10libtorrent22tracker_announce_alertC2ERNS_3aux15stack_allocatorERKNS_14torrent_handleERKN5boost4asio2ip14basic_endpointINS9_3tcpEEENS7_17basic_string_viewIcSt11char_traitsIcEEEi
libtorrent-rasterbar.so.10:_ZN10libtorrent22udp_tracker_connection10on_receiveERKN5boost4asio2ip14basic_endpointINS3_3udpEEENS_4spanIKcEE
libtorrent-rasterbar.so.10:_ZN10libtorrent22udp_tracker_connection10on_timeoutERKN5boost6system10error_codeE
libtorrent-rasterbar.so.10:_ZN10libtorrent22udp_tracker_connection11name_lookupERKN5boost6system10error_codeERKSt6vectorINS1_4asio2ip7addressESaIS9_EEi
libtorrent-rasterbar.so.10:_ZN10libtorrent22udp_tracker_connection14start_announceEv
libtorrent-rasterbar.so.10:_ZN10libtorrent22udp_tracker_connection15send_udp_scrapeEv
libtorrent-rasterbar.so.10:_ZN10libtorrent22udp_tracker_connection16send_udp_connectEv
libtorrent-rasterbar.so.10:_ZN10libtorrent22udp_tracker_connection17send_udp_announceEv
libtorrent-rasterbar.so.10:_ZN10libtorrent22udp_tracker_connection18on_scrape_responseENS_4spanIKcEE
libtorrent-rasterbar.so.10:_ZN10libtorrent22udp_tracker_connection19on_connect_responseENS_4spanIKcEE
libtorrent-rasterbar.so.10:_ZN10libtorrent22udp_tracker_connection19on_receive_hostnameEPKcNS_4spanIS1_EE
libtorrent-rasterbar.so.10:_ZN10libtorrent22udp_tracker_connection20on_announce_responseENS_4spanIKcEE
libtorrent-rasterbar.so.10:_ZN10libtorrent22udp_tracker_connection21update_transaction_idEv
libtorrent-rasterbar.so.10:_ZN10libtorrent22udp_tracker_connection4failERKN5boost6system10error_codeEPKcNSt6chrono8durationIiSt5ratioILl1ELl1EEEESC_
libtorrent-rasterbar.so.10:_ZN10libtorrent22udp_tracker_connection5closeEv
libtorrent-rasterbar.so.10:_ZN10libtorrent22udp_tracker_connection5startEv
libtorrent-rasterbar.so.10:_ZN10libtorrent22udp_tracker_connectionC1ERN5boost4asio10io_contextERNS_15tracker_managerERKNS_15tracker_requestESt8weak_ptrINS_16request_callbackEE
libtorrent-rasterbar.so.10:_ZN10libtorrent22udp_tracker_connectionC2ERN5boost4asio10io_contextERNS_15tracker_managerERKNS_15tracker_requestESt8weak_ptrINS_16request_callbackEE
libtorrent-rasterbar.so.10:_ZN10libtorrent23block_downloading_alertC1ERNS_3aux15stack_allocatorENS_14torrent_handleERKN5boost4asio2ip14basic_endpointINS7_3tcpEEERKNS_8digest32ILl160EEEiNS1_14strong_typedefIiNS1_15piece_index_tagEvEE
libtorrent-rasterbar.so.10:_ZN10libtorrent23block_downloading_alertC2ERNS_3aux15stack_allocatorENS_14torrent_handleERKN5boost4asio2ip14basic_endpointINS7_3tcpEEERKNS_8digest32ILl160EEEiNS1_14strong_typedefIiNS1_15piece_index_tagEvEE
libtorrent-rasterbar.so.10:_ZN10libtorrent23create_smart_ban_pluginERKNS_14torrent_handleEPv
libtorrent-rasterbar.so.10:_ZN10libtorrent23http_tracker_connection10on_connectERNS_15http_connectionE
libtorrent-rasterbar.so.10:_ZN10libtorrent23http_tracker_connection11on_responseERKN5boost6system10error_codeERKNS_11http_parserENS_4spanIKcEE
libtorrent-rasterbar.so.10:_ZN10libtorrent23http_tracker_connection5closeEv
libtorrent-rasterbar.so.10:_ZN10libtorrent23http_tracker_connection5startEv
libtorrent-rasterbar.so.10:_ZN10libtorrent23http_tracker_connection9on_filterERNS_15http_connectionERSt6vectorIN5boost4asio2ip14basic_endpointINS6_3tcpEEESaIS9_EE
libtorrent-rasterbar.so.10:_ZN10libtorrent23http_tracker_connectionC1ERN5boost4asio10io_contextERNS_15tracker_managerERKNS_15tracker_requestESt8weak_ptrINS_16request_callbackEE
libtorrent-rasterbar.so.10:_ZN10libtorrent23http_tracker_connectionC2ERN5boost4asio10io_contextERNS_15tracker_managerERKNS_15tracker_requestESt8weak_ptrINS_16request_callbackEE
libtorrent-rasterbar.so.10:_ZN10libtorrent23metadata_received_alertC1ERNS_3aux15stack_allocatorERKNS_14torrent_handleE
libtorrent-rasterbar.so.10:_ZN10libtorrent23metadata_received_alertC2ERNS_3aux15stack_allocatorERKNS_14torrent_handleE
libtorrent-rasterbar.so.10:_ZN10libtorrent23parse_listen_interfacesERKNSt7__cxx1112basic_stringIcSt11char_traitsIcESaIcEEERSt6vectorIS5_SaIS5_EE
libtorrent-rasterbar.so.10:_ZN10libtorrent23peer_disconnected_alertC1ERNS_3aux15stack_allocatorERKNS_14torrent_handleERKN5boost4asio2ip14basic_endpointINS9_3tcpEEERKNS_8digest32ILl160EEENS_11operation_tEiRKNS7_6system10error_codeENS_14close_reason_tE
libtorrent-rasterbar.so.10:_ZN10libtorrent23peer_disconnected_alertC2ERNS_3aux15stack_allocatorERKNS_14torrent_handleERKN5boost4asio2ip14basic_endpointINS9_3tcpEEERKNS_8digest32ILl160EEENS_11operation_tEiRKNS7_6system10error_codeENS_14close_reason_tE
libtorrent-rasterbar.so.10:_ZN10libtorrent23performance_warning_strENS_17performance_alert21performance_warning_tE
libtorrent-rasterbar.so.10:_ZN10libtorrent23print_listen_interfacesB5cxx11ERKSt6vectorINS_18listen_interface_tESaIS1_EE
libtorrent-rasterbar.so.10:_ZN10libtorrent23torrent_need_cert_alertC1ERNS_3aux15stack_allocatorERKNS_14torrent_handleE
libtorrent-rasterbar.so.10:_ZN10libtorrent23torrent_need_cert_alertC2ERNS_3aux15stack_allocatorERKNS_14torrent_handleE
libtorrent-rasterbar.so.10:_ZN10libtorrent24convert_from_native_pathB5cxx11EPKc
libtorrent-rasterbar.so.10:_ZN10libtorrent24dht_immutable_item_alertC1ERNS_3aux15stack_allocatorERKNS_8digest32ILl160EEERKNS_5entryE
libtorrent-rasterbar.so.10:_ZN10libtorrent24dht_immutable_item_alertC2ERNS_3aux15stack_allocatorERKNS_8digest32ILl160EEERKNS_5entryE
libtorrent-rasterbar.so.10:_ZN10libtorrent24file_rename_failed_alertC1ERNS_3aux15stack_allocatorERKNS_14torrent_handleENS1_14strong_typedefIiNS1_14file_index_tagEvEEN5boost6system10error_codeE
libtorrent-rasterbar.so.10:_ZN10libtorrent24file_rename_failed_alertC2ERNS_3aux15stack_allocatorERKNS_14torrent_handleENS1_14strong_typedefIiNS1_14file_index_tagEvEEN5boost6system10error_codeE
libtorrent-rasterbar.so.10:_ZN10libtorrent24zero_storage_constructorERKNS_14storage_paramsERNS_9file_poolE
libtorrent-rasterbar.so.10:_ZN10libtorrent25bt_peer_connection_handle18switch_recv_cryptoESt10shared_ptrINS_13crypto_pluginEE
libtorrent-rasterbar.so.10:_ZN10libtorrent25bt_peer_connection_handle18switch_send_cryptoESt10shared_ptrINS_13crypto_pluginEE
libtorrent-rasterbar.so.10:_ZN10libtorrent25create_ut_metadata_pluginERKNS_14torrent_handleEPv
libtorrent-rasterbar.so.10:_ZN10libtorrent25current_working_directoryB5cxx11Ev
libtorrent-rasterbar.so.10:_ZN10libtorrent25dht_direct_response_alertC1ERNS_3aux15stack_allocatorEPvRKN5boost4asio2ip14basic_endpointINS7_3udpEEE
libtorrent-rasterbar.so.10:_ZN10libtorrent25dht_direct_response_alertC1ERNS_3aux15stack_allocatorEPvRKN5boost4asio2ip14basic_endpointINS7_3udpEEERKNS_12bdecode_nodeE
libtorrent-rasterbar.so.10:_ZN10libtorrent25dht_direct_response_alertC2ERNS_3aux15stack_allocatorEPvRKN5boost4asio2ip14basic_endpointINS7_3udpEEE
libtorrent-rasterbar.so.10:_ZN10libtorrent25dht_direct_response_alertC2ERNS_3aux15stack_allocatorEPvRKN5boost4asio2ip14basic_endpointINS7_3udpEEERKNS_12bdecode_nodeE
libtorrent-rasterbar.so.10:_ZN10libtorrent25dht_get_peers_reply_alertC1ERNS_3aux15stack_allocatorERKNS_8digest32ILl160EEERKSt6vectorIN5boost4asio2ip14basic_endpointINSB_3tcpEEESaISE_EE
libtorrent-rasterbar.so.10:_ZN10libtorrent25dht_get_peers_reply_alertC2ERNS_3aux15stack_allocatorERKNS_8digest32ILl160EEERKSt6vectorIN5boost4asio2ip14basic_endpointINSB_3tcpEEESaISE_EE
libtorrent-rasterbar.so.10:_ZN10libtorrent25fastresume_rejected_alertC1ERNS_3aux15stack_allocatorERKNS_14torrent_handleERKN5boost6system10error_codeENS7_17basic_string_viewIcSt11char_traitsIcEEENS_11operation_tE
libtorrent-rasterbar.so.10:_ZN10libtorrent25fastresume_rejected_alertC2ERNS_3aux15stack_allocatorERKNS_14torrent_handleERKN5boost6system10error_codeENS7_17basic_string_viewIcSt11char_traitsIcEEENS_11operation_tE
libtorrent-rasterbar.so.10:_ZN10libtorrent25incoming_connection_alertC1ERNS_3aux15stack_allocatorEiRKN5boost4asio2ip14basic_endpointINS6_3tcpEEE
libtorrent-rasterbar.so.10:_ZN10libtorrent25incoming_connection_alertC2ERNS_3aux15stack_allocatorEiRKN5boost4asio2ip14basic_endpointINS6_3tcpEEE
libtorrent-rasterbar.so.10:_ZN10libtorrent25resolve_redirect_locationENSt7__cxx1112basic_stringIcSt11char_traitsIcESaIcEEES5_
libtorrent-rasterbar.so.10:_ZN10libtorrent26session_stats_header_alertC1ERNS_3aux15stack_allocatorE
libtorrent-rasterbar.so.10:_ZN10libtorrent26session_stats_header_alertC2ERNS_3aux15stack_allocatorE
libtorrent-rasterbar.so.10:_ZN10libtorrent26storage_moved_failed_alertC1ERNS_3aux15stack_allocatorERKNS_14torrent_handleERKN5boost6system10error_codeENS7_17basic_string_viewIcSt11char_traitsIcEEENS_11operation_tE
libtorrent-rasterbar.so.10:_ZN10libtorrent26storage_moved_failed_alertC2ERNS_3aux15stack_allocatorERKNS_14torrent_handleERKN5boost6system10error_codeENS7_17basic_string_viewIcSt11char_traitsIcEEENS_11operation_tE
libtorrent-rasterbar.so.10:_ZN10libtorrent27default_storage_constructorERKNS_14storage_paramsERNS_9file_poolE
libtorrent-rasterbar.so.10:_ZN10libtorrent27dht_sample_infohashes_alertC1ERNS_3aux15stack_allocatorERKN5boost4asio2ip14basic_endpointINS6_3udpEEENSt6chrono8durationIlSt5ratioILl1ELl1000000000EEEEiRKSt6vectorINS_8digest32ILl160EEESaISJ_EERKSH_ISt4pairISJ_S9_ESaISP_EE
libtorrent-rasterbar.so.10:_ZN10libtorrent27dht_sample_infohashes_alertC2ERNS_3aux15stack_allocatorERKN5boost4asio2ip14basic_endpointINS6_3udpEEENSt6chrono8durationIlSt5ratioILl1ELl1000000000EEEEiRKSt6vectorINS_8digest32ILl160EEESaISJ_EERKSH_ISt4pairISJ_S9_ESaISP_EE
libtorrent-rasterbar.so.10:_ZN10libtorrent27initialize_default_settingsERNS_3aux30session_settings_single_threadE
libtorrent-rasterbar.so.10:_ZN10libtorrent27torrent_delete_failed_alertC1ERNS_3aux15stack_allocatorERKNS_14torrent_handleERKN5boost6system10error_codeERKNS_8digest32ILl160EEE
libtorrent-rasterbar.so.10:_ZN10libtorrent27torrent_delete_failed_alertC2ERNS_3aux15stack_allocatorERKNS_14torrent_handleERKN5boost6system10error_codeERKNS_8digest32ILl160EEE
libtorrent-rasterbar.so.10:_ZN10libtorrent28dht_outgoing_get_peers_alertC1ERNS_3aux15stack_allocatorERKNS_8digest32ILl160EEES7_N5boost4asio2ip14basic_endpointINSA_3udpEEE
libtorrent-rasterbar.so.10:_ZN10libtorrent28dht_outgoing_get_peers_alertC2ERNS_3aux15stack_allocatorERKNS_8digest32ILl160EEES7_N5boost4asio2ip14basic_endpointINSA_3udpEEE
libtorrent-rasterbar.so.10:_ZN10libtorrent28disabled_storage_constructorERKNS_14storage_paramsERNS_9file_poolE
libtorrent-rasterbar.so.10:_ZN10libtorrent28parse_comma_separated_stringERKNSt7__cxx1112basic_stringIcSt11char_traitsIcESaIcEEERSt6vectorIS5_SaIS5_EE
libtorrent-rasterbar.so.10:_ZN10libtorrent28sanitize_append_path_elementERNSt7__cxx1112basic_stringIcSt11char_traitsIcESaIcEEEN5boost17basic_string_viewIcS3_EE
libtorrent-rasterbar.so.10:_ZN10libtorrent29convert_to_native_path_stringERKNSt7__cxx1112basic_stringIcSt11char_traitsIcESaIcEEE
libtorrent-rasterbar.so.10:_ZN10libtorrent29save_resume_data_failed_alertC1ERNS_3aux15stack_allocatorERKNS_14torrent_handleERKN5boost6system10error_codeE
libtorrent-rasterbar.so.10:_ZN10libtorrent29save_resume_data_failed_alertC2ERNS_3aux15stack_allocatorERKNS_14torrent_handleERKN5boost6system10error_codeE
libtorrent-rasterbar.so.10:_ZN10libtorrent33parse_comma_separated_string_portERKNSt7__cxx1112basic_stringIcSt11char_traitsIcESaIcEEERSt6vectorISt4pairIS5_iESaISA_EE
libtorrent-rasterbar.so.10:_ZN10libtorrent3aux10clear_bufsENS_4spanIKNS1_IcEEEE
libtorrent-rasterbar.so.10:_ZN10libtorrent3aux10hex_to_intEc
libtorrent-rasterbar.so.10:_ZN10libtorrent3aux10readwritevERKNS_12file_storageENS_4spanIKNS4_IcEEEENS0_14strong_typedefIiNS0_15piece_index_tagEvEEiRNS_13storage_errorESt8functionIFiNS8_IiNS0_14file_index_tagEvEElS7_SC_EE
libtorrent-rasterbar.so.10:_ZN10libtorrent3aux10time_now32Ev
libtorrent-rasterbar.so.10:_ZN10libtorrent3aux11socket_type16get_close_reasonEv
libtorrent-rasterbar.so.10:_ZN10libtorrent3aux11socket_type16set_close_reasonENS_14close_reason_tE
libtorrent-rasterbar.so.10:_ZN10libtorrent3aux11socket_type4bindERKN5boost4asio2ip14basic_endpointINS4_3tcpEEE
libtorrent-rasterbar.so.10:_ZN10libtorrent3aux11socket_type4bindERKN5boost4asio2ip14basic_endpointINS4_3tcpEEERNS2_6system10error_codeE
libtorrent-rasterbar.so.10:_ZN10libtorrent3aux11socket_type4openERKN5boost4asio2ip3tcpE
libtorrent-rasterbar.so.10:_ZN10libtorrent3aux11socket_type4openERKN5boost4asio2ip3tcpERNS2_6system10error_codeE
libtorrent-rasterbar.so.10:_ZN10libtorrent3aux11socket_type5closeERN5boost6system10error_codeE
libtorrent-rasterbar.so.10:_ZN10libtorrent3aux11socket_type5closeEv
libtorrent-rasterbar.so.10:_ZN10libtorrent3aux11socket_type8destructEv
libtorrent-rasterbar.so.10:_ZN10libtorrent3aux11socket_type9constructEiPv
libtorrent-rasterbar.so.10:_ZN10libtorrent3aux11socket_typeD1Ev
libtorrent-rasterbar.so.10:_ZN10libtorrent3aux11socket_typeD2Ev
libtorrent-rasterbar.so.10:_ZN10libtorrent3aux12advance_bufsENS_4spanINS1_IcEEEEi
libtorrent-rasterbar.so.10:_ZN10libtorrent3aux12delete_filesERKNS_12file_storageERKNSt7__cxx1112basic_stringIcSt11char_traitsIcESaIcEEESB_NS_5flags13bitfield_flagIhNS_16remove_flags_tagEvEERNS_13storage_errorE
libtorrent-rasterbar.so.10:_ZN10libtorrent3aux12has_any_fileERKNS_12file_storageERKNSt7__cxx1112basic_stringIcSt11char_traitsIcESaIcEEERNS_10stat_cacheERNS_13storage_errorE
libtorrent-rasterbar.so.10:_ZN10libtorrent3aux12move_storageERKNS_12file_storageERKNSt7__cxx1112basic_stringIcSt11char_traitsIcESaIcEEESB_PNS_9part_fileENS_12move_flags_tERNS_13storage_errorE
libtorrent-rasterbar.so.10:_ZN10libtorrent3aux12random_bytesENS_4spanIcEE
libtorrent-rasterbar.so.10:_ZN10libtorrent3aux12session_impl10load_stateEPKNS_12bdecode_nodeENS_5flags13bitfield_flagIjNS_20save_state_flags_tagEvEE
libtorrent-rasterbar.so.10:_ZN10libtorrent3aux12session_impl10log_packetENS_3dht10dht_logger19message_direction_tENS_4spanIKcEERKN5boost4asio2ip14basic_endpointINSA_3udpEEE
libtorrent-rasterbar.so.10:_ZN10libtorrent3aux12session_impl10pop_alertsEPSt6vectorIPNS_5alertESaIS4_EE
libtorrent-rasterbar.so.10:_ZN10libtorrent3aux12session_impl10pop_alertsEv
libtorrent-rasterbar.so.10:_ZN10libtorrent3aux12session_impl10sent_bytesEii
libtorrent-rasterbar.so.10:_ZN10libtorrent3aux12session_impl10start_upnpERNS0_15listen_socket_tE
libtorrent-rasterbar.so.10:_ZN10libtorrent3aux12session_impl10start_upnpEv
libtorrent-rasterbar.so.10:_ZN10libtorrent3aux12session_impl10update_dhtEv
libtorrent-rasterbar.so.10:_ZN10libtorrent3aux12session_impl10update_lsdEv
libtorrent-rasterbar.so.10:_ZN10libtorrent3aux12session_impl11add_torrentEONS_18add_torrent_paramsERN5boost6system10error_codeE
libtorrent-rasterbar.so.10:_ZN10libtorrent3aux12session_impl11insert_peerERKSt10shared_ptrINS_15peer_connectionEE
libtorrent-rasterbar.so.10:_ZN10libtorrent3aux12session_impl11listen_portENS0_9transportERKN5boost4asio2ip7addressE
libtorrent-rasterbar.so.10:_ZN10libtorrent3aux12session_impl11on_i2p_openERKN5boost6system10error_codeE
libtorrent-rasterbar.so.10:_ZN10libtorrent3aux12session_impl11on_lsd_peerERKN5boost4asio2ip14basic_endpointINS4_3tcpEEERKNS_8digest32ILl160EEE
libtorrent-rasterbar.so.10:_ZN10libtorrent3aux12session_impl11remap_portsENS1_17remap_port_mask_tERNS0_15listen_socket_tE
libtorrent-rasterbar.so.10:_ZN10libtorrent3aux12session_impl11sent_bufferEi
libtorrent-rasterbar.so.10:_ZN10libtorrent3aux12session_impl11stop_natpmpEv
libtorrent-rasterbar.so.10:_ZN10libtorrent3aux12session_impl11update_upnpEv
libtorrent-rasterbar.so.10:_ZN10libtorrent3aux12session_impl12abort_stage2Ev
libtorrent-rasterbar.so.10:_ZN10libtorrent3aux12session_impl12add_dht_nodeERKN5boost4asio2ip14basic_endpointINS4_3udpEEE
libtorrent-rasterbar.so.10:_ZN10libtorrent3aux12session_impl12announce_lsdERKNS_8digest32ILl160EEEi
libtorrent-rasterbar.so.10:_ZN10libtorrent3aux12session_impl12async_acceptERKSt10shared_ptrIN5boost4asio21basic_socket_acceptorINS4_2ip3tcpENS4_8executorEEEENS0_9transportE
libtorrent-rasterbar.so.10:_ZN10libtorrent3aux12session_impl12dht_announceERKNS_8digest32ILl160EEEiNS_5flags13bitfield_flagIhNS_3dht21dht_announce_flag_tagEvEE
libtorrent-rasterbar.so.10:_ZN10libtorrent3aux12session_impl12on_exceptionERKSt9exception
libtorrent-rasterbar.so.10:_ZN10libtorrent3aux12session_impl12on_ip_changeERKN5boost6system10error_codeE
libtorrent-rasterbar.so.10:_ZN10libtorrent3aux12session_impl12start_natpmpERNS0_15listen_socket_tE
libtorrent-rasterbar.so.10:_ZN10libtorrent3aux12session_impl12start_natpmpEv
libtorrent-rasterbar.so.10:_ZN10libtorrent3aux12session_impl12update_proxyEv
libtorrent-rasterbar.so.10:_ZN10libtorrent3aux12session_impl13add_extensionESt8functionIFSt10shared_ptrINS_14torrent_pluginEERKNS_14torrent_handleEPvEE
libtorrent-rasterbar.so.10:_ZN10libtorrent3aux12session_impl13dht_get_peersERKNS_8digest32ILl160EEE
libtorrent-rasterbar.so.10:_ZN10libtorrent3aux12session_impl13get_ip_filterEv
libtorrent-rasterbar.so.10:_ZN10libtorrent3aux12session_impl13on_i2p_acceptERKSt10shared_ptrINS0_11socket_typeEERKN5boost6system10error_codeE
libtorrent-rasterbar.so.10:_ZN10libtorrent3aux12session_impl13on_udp_packetESt8weak_ptrINS0_18session_udp_socketEES2_INS0_15listen_socket_tEENS0_9transportERKN5boost6system10error_codeE
libtorrent-rasterbar.so.10:_ZN10libtorrent3aux12session_impl13set_dht_stateEONS_3dht9dht_stateE
libtorrent-rasterbar.so.10:_ZN10libtorrent3aux12session_impl13set_ip_filterERKSt10shared_ptrINS_9ip_filterEE
libtorrent-rasterbar.so.10:_ZN10libtorrent3aux12session_impl13ssl_handshakeERKN5boost6system10error_codeESt10shared_ptrINS0_11socket_typeEE
libtorrent-rasterbar.so.10:_ZN10libtorrent3aux12session_impl13start_sessionEv
libtorrent-rasterbar.so.10:_ZN10libtorrent3aux12session_impl13update_natpmpEv
libtorrent-rasterbar.so.10:_ZN10libtorrent3aux12session_impl14add_dht_routerERKSt4pairINSt7__cxx1112basic_stringIcSt11char_traitsIcESaIcEEEiE
libtorrent-rasterbar.so.10:_ZN10libtorrent3aux12session_impl14dht_live_nodesERKNS_8digest32ILl160EEE
libtorrent-rasterbar.so.10:_ZN10libtorrent3aux12session_impl14insert_torrentERKNS_8digest32ILl160EEERKSt10shared_ptrINS_7torrentEENSt7__cxx1112basic_stringIcSt11char_traitsIcESaIcEEE
libtorrent-rasterbar.so.10:_ZN10libtorrent3aux12session_impl14on_dht_requestEN5boost17basic_string_viewIcSt11char_traitsIcEEERKNS_3dht3msgERNS_5entryE
libtorrent-rasterbar.so.10:_ZN10libtorrent3aux12session_impl14post_dht_statsEv
libtorrent-rasterbar.so.10:_ZN10libtorrent3aux12session_impl14prioritize_dhtESt8weak_ptrINS_7torrentEE
libtorrent-rasterbar.so.10:_ZN10libtorrent3aux12session_impl14received_bytesEii
libtorrent-rasterbar.so.10:_ZN10libtorrent3aux12session_impl14remove_torrentERKNS_14torrent_handleENS_5flags13bitfield_flagIhNS_16remove_flags_tagEvEE
libtorrent-rasterbar.so.10:_ZN10libtorrent3aux12session_impl14set_peer_classENS0_14strong_typedefIjNS_14peer_class_tagEvEERKNS_15peer_class_infoE
libtorrent-rasterbar.so.10:_ZN10libtorrent3aux12session_impl14set_rate_limitENS0_14strong_typedefIjNS_14peer_class_tagEvEEii
libtorrent-rasterbar.so.10:_ZN10libtorrent3aux12session_impl14setup_listenerERKNS0_17listen_endpoint_tERN5boost6system10error_codeE
libtorrent-rasterbar.so.10:_ZN10libtorrent3aux12session_impl14wait_for_alertENSt6chrono8durationIlSt5ratioILl1ELl1000000000EEEE
libtorrent-rasterbar.so.10:_ZN10libtorrent3aux12session_impl15get_listen_portENS0_9transportERKNS0_20listen_socket_handleE
libtorrent-rasterbar.so.10:_ZN10libtorrent3aux12session_impl15on_dht_announceERKN5boost6system10error_codeE
libtorrent-rasterbar.so.10:_ZN10libtorrent3aux12session_impl15on_lsd_announceERKN5boost6system10error_codeE
libtorrent-rasterbar.so.10:_ZN10libtorrent3aux12session_impl15on_port_mappingENS0_14strong_typedefIiNS_16port_mapping_tagEvEERKN5boost4asio2ip7addressEiNS_16portmap_protocolERKNS5_6system10error_codeENS_17portmap_transportE
libtorrent-rasterbar.so.10:_ZN10libtorrent3aux12session_impl15received_bufferEi
libtorrent-rasterbar.so.10:_ZN10libtorrent3aux12session_impl15received_synackEb
libtorrent-rasterbar.so.10:_ZN10libtorrent3aux12session_impl15send_udp_packetESt8weak_ptrINS_20utp_socket_interfaceEERKN5boost4asio2ip14basic_endpointINS7_3udpEEENS_4spanIKcEERNS5_6system10error_codeENS_5flags13bitfield_flagIhNS_18udp_send_flags_tagEvEE
libtorrent-rasterbar.so.10:_ZN10libtorrent3aux12session_impl15set_dht_storageESt8functionIFSt10unique_ptrINS_3dht21dht_storage_interfaceESt14default_deleteIS5_EERKNS4_12dht_settingsEEE
libtorrent-rasterbar.so.10:_ZN10libtorrent3aux12session_impl15set_max_uploadsEi
libtorrent-rasterbar.so.10:_ZN10libtorrent3aux12session_impl15set_port_filterERKNS_11port_filterE
libtorrent-rasterbar.so.10:_ZN10libtorrent3aux12session_impl15update_peer_tosEv
libtorrent-rasterbar.so.10:_ZN10libtorrent3aux12session_impl16add_port_mappingENS_16portmap_protocolEii
libtorrent-rasterbar.so.10:_ZN10libtorrent3aux12session_impl16add_torrent_implERNS_18add_torrent_paramsERN5boost6system10error_codeE
libtorrent-rasterbar.so.10:_ZN10libtorrent3aux12session_impl16close_connectionEPNS_15peer_connectionE
libtorrent-rasterbar.so.10:_ZN10libtorrent3aux12session_impl16on_udp_writeableESt8weak_ptrINS0_18session_udp_socketEERKN5boost6system10error_codeE
libtorrent-rasterbar.so.10:_ZN10libtorrent3aux12session_impl16set_dht_settingsERKNS_3dht12dht_settingsE
libtorrent-rasterbar.so.10:_ZN10libtorrent3aux12session_impl16set_peer_classesEPNS_14peer_class_setERKN5boost4asio2ip7addressEi
libtorrent-rasterbar.so.10:_ZN10libtorrent3aux12session_impl16stop_ip_notifierEv
libtorrent-rasterbar.so.10:_ZN10libtorrent3aux12session_impl16submit_disk_jobsEv
libtorrent-rasterbar.so.10:_ZN10libtorrent3aux12session_impl17add_dht_node_nameERKSt4pairINSt7__cxx1112basic_stringIcSt11char_traitsIcESaIcEEEiE
libtorrent-rasterbar.so.10:_ZN10libtorrent3aux12session_impl17add_ses_extensionESt10shared_ptrINS_6pluginEE
libtorrent-rasterbar.so.10:_ZN10libtorrent3aux12session_impl17async_add_torrentEPNS_18add_torrent_paramsE
libtorrent-rasterbar.so.10:_ZN10libtorrent3aux12session_impl17create_peer_classEPKc
libtorrent-rasterbar.so.10:_ZN10libtorrent3aux12session_impl17delete_peer_classENS0_14strong_typedefIjNS_14peer_class_tagEvEE
libtorrent-rasterbar.so.10:_ZN10libtorrent3aux12session_impl17start_ip_notifierEv
libtorrent-rasterbar.so.10:_ZN10libtorrent3aux12session_impl17update_alert_maskEv
libtorrent-rasterbar.so.10:_ZN10libtorrent3aux12session_impl17update_count_slowEv
libtorrent-rasterbar.so.10:_ZN10libtorrent3aux12session_impl17update_i2p_bridgeEv
libtorrent-rasterbar.so.10:_ZN10libtorrent3aux12session_impl17update_ssl_listenEv
libtorrent-rasterbar.so.10:_ZN10libtorrent3aux12session_impl17update_user_agentEv
libtorrent-rasterbar.so.10:_ZN10libtorrent3aux12session_impl18delay_load_torrentERKNS_8digest32ILl160EEEPNS_15peer_connectionE
libtorrent-rasterbar.so.10:_ZN10libtorrent3aux12session_impl18dht_direct_requestERKN5boost4asio2ip14basic_endpointINS4_3udpEEERNS_5entryEPv
libtorrent-rasterbar.so.10:_ZN10libtorrent3aux12session_impl18on_dht_name_lookupERKN5boost6system10error_codeERKSt6vectorINS2_4asio2ip7addressESaISA_EEi
libtorrent-rasterbar.so.10:_ZN10libtorrent3aux12session_impl18outgoing_get_peersERKNS_8digest32ILl160EEES5_RKN5boost4asio2ip14basic_endpointINS8_3udpEEE
libtorrent-rasterbar.so.10:_ZN10libtorrent3aux12session_impl18post_session_statsEv
libtorrent-rasterbar.so.10:_ZN10libtorrent3aux12session_impl18set_queue_positionEPNS_7torrentENS0_14strong_typedefIiNS_18queue_position_tagEvEE
libtorrent-rasterbar.so.10:_ZN10libtorrent3aux12session_impl18update_ip_notifierEv
libtorrent-rasterbar.so.10:_ZN10libtorrent3aux12session_impl18update_upload_rateEv
libtorrent-rasterbar.so.10:_ZN10libtorrent3aux12session_impl18use_quota_overheadEPNS_17bandwidth_channelEi
libtorrent-rasterbar.so.10:_ZN10libtorrent3aux12session_impl18use_quota_overheadERNS_14peer_class_setEii
libtorrent-rasterbar.so.10:_ZN10libtorrent3aux12session_impl19add_obfuscated_hashERKNS_8digest32ILl160EEERKSt8weak_ptrINS_7torrentEE
libtorrent-rasterbar.so.10:_ZN10libtorrent3aux12session_impl19apply_settings_packESt10shared_ptrINS_13settings_packEE
libtorrent-rasterbar.so.10:_ZN10libtorrent3aux12session_impl19delete_port_mappingENS0_14strong_typedefIiNS_16port_mapping_tagEvEE
libtorrent-rasterbar.so.10:_ZN10libtorrent3aux12session_impl19find_torrent_handleERKNS_8digest32ILl160EEE
libtorrent-rasterbar.so.10:_ZN10libtorrent3aux12session_impl19incoming_connectionERKSt10shared_ptrINS0_11socket_typeEE
libtorrent-rasterbar.so.10:_ZN10libtorrent3aux12session_impl19on_incoming_utp_sslERKSt10shared_ptrINS0_11socket_typeEE
libtorrent-rasterbar.so.10:_ZN10libtorrent3aux12session_impl19remove_torrent_implESt10shared_ptrINS_7torrentEENS_5flags13bitfield_flagIhNS_16remove_flags_tagEvEE
libtorrent-rasterbar.so.10:_ZN10libtorrent3aux12session_impl19set_max_connectionsEi
libtorrent-rasterbar.so.10:_ZN10libtorrent3aux12session_impl19trancieve_ip_packetEib
libtorrent-rasterbar.so.10:_ZN10libtorrent3aux12session_impl19trigger_auto_manageEv
libtorrent-rasterbar.so.10:_ZN10libtorrent3aux12session_impl19update_dht_settingsEv
libtorrent-rasterbar.so.10:_ZN10libtorrent3aux12session_impl19update_disk_threadsEv
libtorrent-rasterbar.so.10:_ZN10libtorrent3aux12session_impl20auto_manage_torrentsERSt6vectorIPNS_7torrentESaIS4_EERiS8_S8_S8_i
libtorrent-rasterbar.so.10:_ZN10libtorrent3aux12session_impl20deferred_submit_jobsEv
libtorrent-rasterbar.so.10:_ZN10libtorrent3aux12session_impl20dht_get_mutable_itemESt5arrayIcLm32EENSt7__cxx1112basic_stringIcSt11char_traitsIcESaIcEEE
libtorrent-rasterbar.so.10:_ZN10libtorrent3aux12session_impl20dht_put_mutable_itemESt5arrayIcLm32EESt8functionIFvRNS_5entryERS2_IcLm64EERlRKNSt7__cxx1112basic_stringIcSt11char_traitsIcESaIcEEEEESF_
libtorrent-rasterbar.so.10:_ZN10libtorrent3aux12session_impl20get_mutable_callbackERKNS_3dht4itemEb
libtorrent-rasterbar.so.10:_ZN10libtorrent3aux12session_impl20on_accept_connectionERKSt10shared_ptrINS0_11socket_typeEESt8weak_ptrIN5boost4asio21basic_socket_acceptorINS9_2ip3tcpENS9_8executorEEEERKNS8_6system10error_codeENS0_9transportE
libtorrent-rasterbar.so.10:_ZN10libtorrent3aux12session_impl20post_torrent_updatesENS_5flags13bitfield_flagIjNS_16status_flags_tagEvEE
libtorrent-rasterbar.so.10:_ZN10libtorrent3aux12session_impl20set_external_addressERKN5boost4asio2ip14basic_endpointINS4_3tcpEEERKNS4_7addressENS_5flags13bitfield_flagIhNS0_13ip_source_tagEvEESC_
libtorrent-rasterbar.so.10:_ZN10libtorrent3aux12session_impl20set_external_addressERKNS0_20listen_socket_handleERKN5boost4asio2ip7addressESA_
libtorrent-rasterbar.so.10:_ZN10libtorrent3aux12session_impl20set_external_addressERKSt10shared_ptrINS0_15listen_socket_tEERKN5boost4asio2ip7addressENS_5flags13bitfield_flagIhNS0_13ip_source_tagEvEESC_
libtorrent-rasterbar.so.10:_ZN10libtorrent3aux12session_impl20start_dht_deprecatedERKNS_5entryE
libtorrent-rasterbar.so.10:_ZN10libtorrent3aux12session_impl20update_download_rateEv
libtorrent-rasterbar.so.10:_ZN10libtorrent3aux12session_impl20update_max_failcountEv
libtorrent-rasterbar.so.10:_ZN10libtorrent3aux12session_impl20update_unchoke_limitEv
libtorrent-rasterbar.so.10:_ZN10libtorrent3aux12session_impl20verify_bound_addressERKN5boost4asio2ip7addressEbRNS2_6system10error_codeE
libtorrent-rasterbar.so.10:_ZN10libtorrent3aux12session_impl21dht_sample_infohashesERKN5boost4asio2ip14basic_endpointINS4_3udpEEERKNS_8digest32ILl160EEE
libtorrent-rasterbar.so.10:_ZN10libtorrent3aux12session_impl21get_bandwidth_managerEi
libtorrent-rasterbar.so.10:_ZN10libtorrent3aux12session_impl21on_async_load_torrentEPNS_18add_torrent_paramsEN5boost6system10error_codeE
libtorrent-rasterbar.so.10:_ZN10libtorrent3aux12session_impl21queue_tracker_requestEONS_15tracker_requestESt8weak_ptrINS_16request_callbackEE
libtorrent-rasterbar.so.10:_ZN10libtorrent3aux12session_impl21reopen_listen_socketsEb
libtorrent-rasterbar.so.10:_ZN10libtorrent3aux12session_impl21set_peer_class_filterERKNS_9ip_filterE
libtorrent-rasterbar.so.10:_ZN10libtorrent3aux12session_impl21set_upload_rate_limitENS0_14strong_typedefIjNS_14peer_class_tagEvEEi
libtorrent-rasterbar.so.10:_ZN10libtorrent3aux12session_impl21update_rate_limit_utpEv
libtorrent-rasterbar.so.10:_ZN10libtorrent3aux12session_impl21update_validate_httpsEv
libtorrent-rasterbar.so.10:_ZN10libtorrent3aux12session_impl22dht_get_immutable_itemERKNS_8digest32ILl160EEE
libtorrent-rasterbar.so.10:_ZN10libtorrent3aux12session_impl22dht_put_immutable_itemERKNS_5entryENS_8digest32ILl160EEE
libtorrent-rasterbar.so.10:_ZN10libtorrent3aux12session_impl22find_encrypted_torrentERKNS_8digest32ILl160EEES5_
libtorrent-rasterbar.so.10:_ZN10libtorrent3aux12session_impl22get_immutable_callbackENS_8digest32ILl160EEERKNS_3dht4itemE
libtorrent-rasterbar.so.10:_ZN10libtorrent3aux12session_impl22init_peer_class_filterEb
libtorrent-rasterbar.so.10:_ZN10libtorrent3aux12session_impl22on_trigger_auto_manageEv
libtorrent-rasterbar.so.10:_ZN10libtorrent3aux12session_impl22prioritize_connectionsESt8weak_ptrINS_7torrentEE
libtorrent-rasterbar.so.10:_ZN10libtorrent3aux12session_impl22reopen_network_socketsENS_5flags13bitfield_flagIhNS_24reopen_network_flags_tagEvEE
libtorrent-rasterbar.so.10:_ZN10libtorrent3aux12session_impl22try_connect_more_peersEv
libtorrent-rasterbar.so.10:_ZN10libtorrent3aux12session_impl22update_auto_sequentialEv
libtorrent-rasterbar.so.10:_ZN10libtorrent3aux12session_impl23copy_pertinent_channelsERKNS_14peer_class_setEiPPNS_17bandwidth_channelEi
libtorrent-rasterbar.so.10:_ZN10libtorrent3aux12session_impl23set_download_rate_limitENS0_14strong_typedefIjNS_14peer_class_tagEvEEi
libtorrent-rasterbar.so.10:_ZN10libtorrent3aux12session_impl23update_alert_queue_sizeEv
libtorrent-rasterbar.so.10:_ZN10libtorrent3aux12session_impl23update_connection_speedEv
libtorrent-rasterbar.so.10:_ZN10libtorrent3aux12session_impl23update_privileged_portsEv
libtorrent-rasterbar.so.10:_ZN10libtorrent3aux12session_impl24apply_settings_pack_implERKNS_13settings_packE
libtorrent-rasterbar.so.10:_ZN10libtorrent3aux12session_impl24send_udp_packet_hostnameESt8weak_ptrINS_20utp_socket_interfaceEEPKciNS_4spanIS5_EERN5boost6system10error_codeENS_5flags13bitfield_flagIhNS_18udp_send_flags_tagEvEE
libtorrent-rasterbar.so.10:_ZN10libtorrent3aux12session_impl24update_connections_limitEv
libtorrent-rasterbar.so.10:_ZN10libtorrent3aux12session_impl24update_listen_interfacesEv
libtorrent-rasterbar.so.10:_ZN10libtorrent3aux12session_impl24update_local_upload_rateEv
libtorrent-rasterbar.so.10:_ZN10libtorrent3aux12session_impl24update_queued_disk_bytesEv
libtorrent-rasterbar.so.10:_ZN10libtorrent3aux12session_impl25add_extensions_to_torrentERKSt10shared_ptrINS_7torrentEEPv
libtorrent-rasterbar.so.10:_ZN10libtorrent3aux12session_impl25on_dht_router_name_lookupERKN5boost6system10error_codeERKSt6vectorINS2_4asio2ip7addressESaISA_EEi
libtorrent-rasterbar.so.10:_ZN10libtorrent3aux12session_impl25recalculate_unchoke_slotsEv
libtorrent-rasterbar.so.10:_ZN10libtorrent3aux12session_impl25update_socket_buffer_sizeEv
libtorrent-rasterbar.so.10:_ZN10libtorrent3aux12session_impl25verify_incoming_interfaceERKN5boost4asio2ip7addressE
libtorrent-rasterbar.so.10:_ZN10libtorrent3aux12session_impl26get_peer_class_type_filterEv
libtorrent-rasterbar.so.10:_ZN10libtorrent3aux12session_impl26set_alert_queue_size_limitEm
libtorrent-rasterbar.so.10:_ZN10libtorrent3aux12session_impl26set_peer_class_type_filterENS_22peer_class_type_filterE
libtorrent-rasterbar.so.10:_ZN10libtorrent3aux12session_impl26set_upload_rate_limit_deprEi
libtorrent-rasterbar.so.10:_ZN10libtorrent3aux12session_impl26update_dht_bootstrap_nodesEv
libtorrent-rasterbar.so.10:_ZN10libtorrent3aux12session_impl26update_local_download_rateEv
libtorrent-rasterbar.so.10:_ZN10libtorrent3aux12session_impl26update_outgoing_interfacesEv
libtorrent-rasterbar.so.10:_ZN10libtorrent3aux12session_impl27set_local_upload_rate_limitEi
libtorrent-rasterbar.so.10:_ZN10libtorrent3aux12session_impl28set_download_rate_limit_deprEi
libtorrent-rasterbar.so.10:_ZN10libtorrent3aux12session_impl28update_dht_announce_intervalEv
libtorrent-rasterbar.so.10:_ZN10libtorrent3aux12session_impl28update_dht_upload_rate_limitEv
libtorrent-rasterbar.so.10:_ZN10libtorrent3aux12session_impl29auto_manage_checking_torrentsERSt6vectorIPNS_7torrentESaIS4_EERi
libtorrent-rasterbar.so.10:_ZN10libtorrent3aux12session_impl29set_local_download_rate_limitEi
libtorrent-rasterbar.so.10:_ZN10libtorrent3aux12session_impl29update_resolver_cache_timeoutEv
libtorrent-rasterbar.so.10:_ZN10libtorrent3aux12session_impl32open_new_incoming_i2p_connectionEv
libtorrent-rasterbar.so.10:_ZN10libtorrent3aux12session_impl32update_report_web_seed_downloadsEv
libtorrent-rasterbar.so.10:_ZN10libtorrent3aux12session_impl33recalculate_auto_managed_torrentsEv
libtorrent-rasterbar.so.10:_ZN10libtorrent3aux12session_impl36recalculate_optimistic_unchoke_slotsEv
libtorrent-rasterbar.so.10:_ZN10libtorrent3aux12session_impl3logENS_3dht10dht_logger8module_tEPKcz
libtorrent-rasterbar.so.10:_ZN10libtorrent3aux12session_impl42update_ignore_rate_limits_on_local_networkEv
libtorrent-rasterbar.so.10:_ZN10libtorrent3aux12session_impl4initEv
libtorrent-rasterbar.so.10:_ZN10libtorrent3aux12session_impl5abortEv
libtorrent-rasterbar.so.10:_ZN10libtorrent3aux12session_impl5pauseEv
libtorrent-rasterbar.so.10:_ZN10libtorrent3aux12session_impl6ban_ipEN5boost4asio2ip7addressE
libtorrent-rasterbar.so.10:_ZN10libtorrent3aux12session_impl6resumeEv
libtorrent-rasterbar.so.10:_ZN10libtorrent3aux12session_impl7on_tickERKN5boost6system10error_codeE
libtorrent-rasterbar.so.10:_ZN10libtorrent3aux12session_impl8announceERKNS_8digest32ILl160EEERKN5boost4asio2ip7addressEi
libtorrent-rasterbar.so.10:_ZN10libtorrent3aux12session_impl8on_errorERKN5boost6system10error_codeE
libtorrent-rasterbar.so.10:_ZN10libtorrent3aux12session_impl8sent_synEb
libtorrent-rasterbar.so.10:_ZN10libtorrent3aux12session_impl8stop_dhtEv
libtorrent-rasterbar.so.10:_ZN10libtorrent3aux12session_impl8stop_lsdEv
libtorrent-rasterbar.so.10:_ZN10libtorrent3aux12session_impl9get_peersERKNS_8digest32ILl160EEE
libtorrent-rasterbar.so.10:_ZN10libtorrent3aux12session_impl9pop_alertEv
libtorrent-rasterbar.so.10:_ZN10libtorrent3aux12session_impl9start_dhtEv
libtorrent-rasterbar.so.10:_ZN10libtorrent3aux12session_impl9start_lsdEv
libtorrent-rasterbar.so.10:_ZN10libtorrent3aux12session_impl9stop_upnpEv
libtorrent-rasterbar.so.10:_ZN10libtorrent3aux12session_implC1ERN5boost4asio10io_contextERKNS_13settings_packE
libtorrent-rasterbar.so.10:_ZN10libtorrent3aux12session_implC2ERN5boost4asio10io_contextERKNS_13settings_packE
libtorrent-rasterbar.so.10:_ZN10libtorrent3aux12session_implD0Ev
libtorrent-rasterbar.so.10:_ZN10libtorrent3aux12session_implD1Ev
libtorrent-rasterbar.so.10:_ZN10libtorrent3aux12session_implD2Ev
libtorrent-rasterbar.so.10:_ZN10libtorrent3aux13file_progress15export_progressERNS0_17container_wrapperIlNS0_14strong_typedefIiNS0_14file_index_tagEvEESt6vectorIlSaIlEEEE
libtorrent-rasterbar.so.10:_ZN10libtorrent3aux13file_progress4initERKNS_12piece_pickerERKNS_12file_storageE
libtorrent-rasterbar.so.10:_ZN10libtorrent3aux13file_progress5clearEv
libtorrent-rasterbar.so.10:_ZN10libtorrent3aux13file_progress6updateERKNS_12file_storageENS0_14strong_typedefIiNS0_15piece_index_tagEvEERKSt8functionIFvNS5_IiNS0_14file_index_tagEvEEEE
libtorrent-rasterbar.so.10:_ZN10libtorrent3aux13random_engineEv
libtorrent-rasterbar.so.10:_ZN10libtorrent3aux14disk_job_fence10is_blockedEPNS_11disk_io_jobE
libtorrent-rasterbar.so.10:_ZN10libtorrent3aux14disk_job_fence11raise_fenceEPNS_11disk_io_jobES3_RNS_8countersE
libtorrent-rasterbar.so.10:_ZN10libtorrent3aux14disk_job_fence12job_completeEPNS_11disk_io_jobERNS_9tailqueueIS2_EE
libtorrent-rasterbar.so.10:_ZN10libtorrent3aux14expand_devicesENS_4spanIKNS_12ip_interfaceEEERSt6vectorINS0_17listen_endpoint_tESaIS6_EE
libtorrent-rasterbar.so.10:_ZN10libtorrent3aux14proxy_settingsC1ERKNS0_16session_settingsE
libtorrent-rasterbar.so.10:_ZN10libtorrent3aux14proxy_settingsC1ERKNS_13settings_packE
libtorrent-rasterbar.so.10:_ZN10libtorrent3aux14proxy_settingsC1Ev
libtorrent-rasterbar.so.10:_ZN10libtorrent3aux14proxy_settingsC2ERKNS0_16session_settingsE
libtorrent-rasterbar.so.10:_ZN10libtorrent3aux14proxy_settingsC2ERKNS_13settings_packE
libtorrent-rasterbar.so.10:_ZN10libtorrent3aux14proxy_settingsC2Ev
libtorrent-rasterbar.so.10:_ZN10libtorrent3aux15bits_shift_leftENS_4spanIjEEi
libtorrent-rasterbar.so.10:_ZN10libtorrent3aux15stack_allocator11copy_bufferENS_4spanIKcEE
libtorrent-rasterbar.so.10:_ZN10libtorrent3aux15stack_allocator11copy_stringEN5boost17basic_string_viewIcSt11char_traitsIcEEE
libtorrent-rasterbar.so.10:_ZN10libtorrent3aux15stack_allocator11copy_stringEPKc
libtorrent-rasterbar.so.10:_ZN10libtorrent3aux15stack_allocator13format_stringEPKcP13__va_list_tag
libtorrent-rasterbar.so.10:_ZN10libtorrent3aux15stack_allocator3ptrENS0_15allocation_slotE
libtorrent-rasterbar.so.10:_ZN10libtorrent3aux15stack_allocator4swapERS1_
libtorrent-rasterbar.so.10:_ZN10libtorrent3aux15stack_allocator5resetEv
libtorrent-rasterbar.so.10:_ZN10libtorrent3aux15stack_allocator8allocateEi
libtorrent-rasterbar.so.10:_ZN10libtorrent3aux16bits_shift_rightENS_4spanIjEEi
libtorrent-rasterbar.so.10:_ZN10libtorrent3aux16generate_peer_idERKNS0_16session_settingsE
libtorrent-rasterbar.so.10:_ZN10libtorrent3aux16get_symlink_pathERKNSt7__cxx1112basic_stringIcSt11char_traitsIcESaIcEEE
libtorrent-rasterbar.so.10:_ZN10libtorrent3aux16session_settings8bulk_setESt8functionIFvRNS0_30session_settings_single_threadEEE
libtorrent-rasterbar.so.10:_ZN10libtorrent3aux16session_settingsC1ERKNS_13settings_packE
libtorrent-rasterbar.so.10:_ZN10libtorrent3aux16session_settingsC1Ev
libtorrent-rasterbar.so.10:_ZN10libtorrent3aux16session_settingsC2ERKNS_13settings_packE
libtorrent-rasterbar.so.10:_ZN10libtorrent3aux16session_settingsC2Ev
libtorrent-rasterbar.so.10:_ZN10libtorrent3aux17storage_piece_set12remove_pieceEPNS_18cached_piece_entryE
libtorrent-rasterbar.so.10:_ZN10libtorrent3aux17storage_piece_set9add_pieceEPNS_18cached_piece_entryE
libtorrent-rasterbar.so.10:_ZN10libtorrent3aux18create_ip_notifierERN5boost4asio10io_contextE
libtorrent-rasterbar.so.10:_ZN10libtorrent3aux18verify_resume_dataERKNS_18add_torrent_paramsERKNS0_17container_wrapperINSt7__cxx1112basic_stringIcSt11char_traitsIcESaIcEEENS0_14strong_typedefIiNS0_14file_index_tagEvEESt6vectorISA_SaISA_EEEERKNS_12file_storageERKNS4_INSB_IhNS_21download_priority_tagEvEESD_SE_ISO_SaISO_EEEERNS_10stat_cacheERKSA_RNS_13storage_errorE
libtorrent-rasterbar.so.10:_ZN10libtorrent3aux19count_leading_zerosENS_4spanIKjEE
libtorrent-rasterbar.so.10:_ZN10libtorrent3aux19count_trailing_onesENS_4spanIKjEE
libtorrent-rasterbar.so.10:_ZN10libtorrent3aux19get_file_attributesERKNSt7__cxx1112basic_stringIcSt11char_traitsIcESaIcEEE
libtorrent-rasterbar.so.10:_ZN10libtorrent3aux20identify_client_implB5cxx11ERKNS_8digest32ILl160EEE
libtorrent-rasterbar.so.10:_ZN10libtorrent3aux22count_leading_zeros_hwENS_4spanIKjEE
libtorrent-rasterbar.so.10:_ZN10libtorrent3aux22count_leading_zeros_swENS_4spanIKjEE
libtorrent-rasterbar.so.10:_ZN10libtorrent3aux22count_trailing_ones_hwENS_4spanIKjEE
libtorrent-rasterbar.so.10:_ZN10libtorrent3aux22count_trailing_ones_swENS_4spanIKjEE
libtorrent-rasterbar.so.10:_ZN10libtorrent3aux22instantiate_connectionERN5boost4asio10io_contextERKNS0_14proxy_settingsERNS0_11socket_typeEPvPNS_18utp_socket_managerEbb
libtorrent-rasterbar.so.10:_ZN10libtorrent3aux22interface_to_endpointsERKNS_18listen_interface_tENS_5flags13bitfield_flagIhNS0_23listen_socket_flags_tagEvEENS_4spanIKNS_12ip_interfaceEEERSt6vectorINS0_17listen_endpoint_tESaISD_EE
libtorrent-rasterbar.so.10:_ZN10libtorrent3aux24partition_listen_socketsERSt6vectorINS0_17listen_endpoint_tESaIS2_EERS1_ISt10shared_ptrINS0_15listen_socket_tEESaIS8_EE
libtorrent-rasterbar.so.10:_ZN10libtorrent3aux25openssl_num_general_namesEP21stack_st_GENERAL_NAME
libtorrent-rasterbar.so.10:_ZN10libtorrent3aux26expand_unspecified_addressENS_4spanIKNS_12ip_interfaceEEENS1_IKNS_8ip_routeEEERSt6vectorINS0_17listen_endpoint_tESaIS9_EE
libtorrent-rasterbar.so.10:_ZN10libtorrent3aux26file_piece_range_exclusiveERKNS_12file_storageENS0_14strong_typedefIiNS0_14file_index_tagEvEE
libtorrent-rasterbar.so.10:_ZN10libtorrent3aux26file_piece_range_inclusiveERKNS_12file_storageENS0_14strong_typedefIiNS0_14file_index_tagEvEE
libtorrent-rasterbar.so.10:_ZN10libtorrent3aux26openssl_general_name_valueEP21stack_st_GENERAL_NAMEi
libtorrent-rasterbar.so.10:_ZN10libtorrent3aux27openssl_set_tlsext_hostnameEP6ssl_stPKc
libtorrent-rasterbar.so.10:_ZN10libtorrent3aux30session_settings_single_threadC1Ev
libtorrent-rasterbar.so.10:_ZN10libtorrent3aux30session_settings_single_threadC2Ev
libtorrent-rasterbar.so.10:_ZN10libtorrent3aux33openssl_set_tlsext_servername_argEP10ssl_ctx_stPv
libtorrent-rasterbar.so.10:_ZN10libtorrent3aux38openssl_set_tlsext_servername_callbackEP10ssl_ctx_stPFiP6ssl_stPiPvE
libtorrent-rasterbar.so.10:_ZN10libtorrent3aux6is_hexENS_4spanIKcEE
libtorrent-rasterbar.so.10:_ZN10libtorrent3aux6log2p1Ej
libtorrent-rasterbar.so.10:_ZN10libtorrent3aux6to_hexB5cxx11ENS_4spanIKcEE
libtorrent-rasterbar.so.10:_ZN10libtorrent3aux6to_hexENS_4spanIKcEEPc
libtorrent-rasterbar.so.10:_ZN10libtorrent3aux6to_hexEPKciPc
libtorrent-rasterbar.so.10:_ZN10libtorrent3aux8from_hexENS_4spanIKcEEPc
libtorrent-rasterbar.so.10:_ZN10libtorrent3aux8time_nowEv
libtorrent-rasterbar.so.10:_ZN10libtorrent3aux9copy_bufsENS_4spanIKNS1_IcEEEEiNS1_IS2_EE
libtorrent-rasterbar.so.10:_ZN10libtorrent3dht10node_entry10update_rttEi
libtorrent-rasterbar.so.10:_ZN10libtorrent3dht10node_entryC1ERKN5boost4asio2ip14basic_endpointINS4_3udpEEE
libtorrent-rasterbar.so.10:_ZN10libtorrent3dht10node_entryC1ERKNS_8digest32ILl160EEERKN5boost4asio2ip14basic_endpointINS8_3udpEEEib
libtorrent-rasterbar.so.10:_ZN10libtorrent3dht10node_entryC2ERKN5boost4asio2ip14basic_endpointINS4_3udpEEE
libtorrent-rasterbar.so.10:_ZN10libtorrent3dht10node_entryC2ERKNS_8digest32ILl160EEERKN5boost4asio2ip14basic_endpointINS8_3udpEEEib
libtorrent-rasterbar.so.10:_ZN10libtorrent3dht11compare_refERKNS_8digest32ILl160EEES4_S4_
libtorrent-rasterbar.so.10:_ZN10libtorrent3dht11dht_tracker10dht_statusERNS_14session_statusE
libtorrent-rasterbar.so.10:_ZN10libtorrent3dht11dht_tracker10dht_statusERSt6vectorINS_18dht_routing_bucketESaIS3_EERS2_INS_10dht_lookupESaIS7_EE
libtorrent-rasterbar.so.10:_ZN10libtorrent3dht11dht_tracker10live_nodesERKNS_8digest32ILl160EEE
libtorrent-rasterbar.so.10:_ZN10libtorrent3dht11dht_tracker10new_socketERKNS_3aux20listen_socket_handleE
libtorrent-rasterbar.so.10:_ZN10libtorrent3dht11dht_tracker11refresh_keyERKN5boost6system10error_codeE
libtorrent-rasterbar.so.10:_ZN10libtorrent3dht11dht_tracker11send_packetERKNS_3aux20listen_socket_handleERNS_5entryERKN5boost4asio2ip14basic_endpointINSA_3udpEEE
libtorrent-rasterbar.so.10:_ZN10libtorrent3dht11dht_tracker12tracker_nodeC1ERN5boost4asio10io_contextERKNS_3aux20listen_socket_handleEPNS0_14socket_managerERKNS0_8settingsERKNS_8digest32ILl160EEEPNS0_12dht_observerERNS_8countersESt8functionIFPNS0_4nodeESJ_RKNSt7__cxx1112basic_stringIcSt11char_traitsIcESaIcEEEEERNS0_21dht_storage_interfaceE
libtorrent-rasterbar.so.10:_ZN10libtorrent3dht11dht_tracker12tracker_nodeC2ERN5boost4asio10io_contextERKNS_3aux20listen_socket_handleEPNS0_14socket_managerERKNS0_8settingsERKNS_8digest32ILl160EEEPNS0_12dht_observerERNS_8countersESt8functionIFPNS0_4nodeESJ_RKNSt7__cxx1112basic_stringIcSt11char_traitsIcESaIcEEEEERNS0_21dht_storage_interfaceE
libtorrent-rasterbar.so.10:_ZN10libtorrent3dht11dht_tracker13delete_socketERKNS_3aux20listen_socket_handleE
libtorrent-rasterbar.so.10:_ZN10libtorrent3dht11dht_tracker14direct_requestERKN5boost4asio2ip14basic_endpointINS4_3udpEEERNS_5entryESt8functionIFvRKNS0_3msgEEE
libtorrent-rasterbar.so.10:_ZN10libtorrent3dht11dht_tracker14incoming_errorERKN5boost6system10error_codeERKNS2_4asio2ip14basic_endpointINS8_3udpEEE
libtorrent-rasterbar.so.10:_ZN10libtorrent3dht11dht_tracker14update_node_idERKNS_3aux20listen_socket_handleE
libtorrent-rasterbar.so.10:_ZN10libtorrent3dht11dht_tracker15add_router_nodeERKN5boost4asio2ip14basic_endpointINS4_3udpEEE
libtorrent-rasterbar.so.10:_ZN10libtorrent3dht11dht_tracker15incoming_packetERKNS_3aux20listen_socket_handleERKN5boost4asio2ip14basic_endpointINS8_3udpEEENS_4spanIKcEE
libtorrent-rasterbar.so.10:_ZN10libtorrent3dht11dht_tracker15refresh_timeoutERKN5boost6system10error_codeE
libtorrent-rasterbar.so.10:_ZN10libtorrent3dht11dht_tracker17sample_infohashesERKN5boost4asio2ip14basic_endpointINS4_3udpEEERKNS_8digest32ILl160EEESt8functionIFvNSt6chrono8durationIlSt5ratioILl1ELl1000000000EEEEiSt6vectorISB_SaISB_EESK_ISt4pairISB_S7_ESaISO_EEEE
libtorrent-rasterbar.so.10:_ZN10libtorrent3dht11dht_tracker18connection_timeoutERKNS_3aux20listen_socket_handleERKN5boost6system10error_codeE
libtorrent-rasterbar.so.10:_ZN10libtorrent3dht11dht_tracker23update_storage_node_idsEv
libtorrent-rasterbar.so.10:_ZN10libtorrent3dht11dht_tracker4stopEv
libtorrent-rasterbar.so.10:_ZN10libtorrent3dht11dht_tracker5startERKSt8functionIFvRKSt6vectorISt4pairINS0_10node_entryENSt7__cxx1112basic_stringIcSt11char_traitsIcESaIcEEEESaISC_EEEE
libtorrent-rasterbar.so.10:_ZN10libtorrent3dht11dht_tracker8add_nodeERKN5boost4asio2ip14basic_endpointINS4_3udpEEE
libtorrent-rasterbar.so.10:_ZN10libtorrent3dht11dht_tracker8announceERKNS_8digest32ILl160EEEiNS_5flags13bitfield_flagIhNS0_21dht_announce_flag_tagEvEESt8functionIFvRKSt6vectorIN5boost4asio2ip14basic_endpointINSE_3tcpEEESaISH_EEEE
libtorrent-rasterbar.so.10:_ZN10libtorrent3dht11dht_tracker8get_itemERKNS0_10public_keyESt8functionIFvRKNS0_4itemEbEENSt7__cxx1112basic_stringIcSt11char_traitsIcESaIcEEE
libtorrent-rasterbar.so.10:_ZN10libtorrent3dht11dht_tracker8get_itemERKNS_8digest32ILl160EEESt8functionIFvRKNS0_4itemEEE
libtorrent-rasterbar.so.10:_ZN10libtorrent3dht11dht_tracker8get_nodeERKNS_8digest32ILl160EEERKNSt7__cxx1112basic_stringIcSt11char_traitsIcESaIcEEE
libtorrent-rasterbar.so.10:_ZN10libtorrent3dht11dht_tracker8put_itemERKNS0_10public_keyESt8functionIFvRKNS0_4itemEiEES5_IFvRS6_EENSt7__cxx1112basic_stringIcSt11char_traitsIcESaIcEEE
libtorrent-rasterbar.so.10:_ZN10libtorrent3dht11dht_tracker8put_itemERKNS_5entryESt8functionIFviEE
libtorrent-rasterbar.so.10:_ZN10libtorrent3dht11dht_tracker9get_peersERKNS_8digest32ILl160EEESt8functionIFvRKSt6vectorIN5boost4asio2ip14basic_endpointINSA_3tcpEEESaISD_EEEE
libtorrent-rasterbar.so.10:_ZN10libtorrent3dht11dht_tracker9has_quotaEv
libtorrent-rasterbar.so.10:_ZN10libtorrent3dht11dht_trackerC1EPNS0_12dht_observerERN5boost4asio10io_contextERKSt8functionIFvRKNS_3aux20listen_socket_handleERKNS5_2ip14basic_endpointINSD_3udpEEENS_4spanIKcEERNS4_6system10error_codeENS_5flags13bitfield_flagIhNS_18udp_send_flags_tagEvEEEERKNS0_8settingsERNS_8countersERNS0_21dht_storage_interfaceEONS0_9dht_stateE
libtorrent-rasterbar.so.10:_ZN10libtorrent3dht11dht_trackerC2EPNS0_12dht_observerERN5boost4asio10io_contextERKSt8functionIFvRKNS_3aux20listen_socket_handleERKNS5_2ip14basic_endpointINSD_3udpEEENS_4spanIKcEERNS4_6system10error_codeENS_5flags13bitfield_flagIhNS_18udp_send_flags_tagEvEEEERKNS0_8settingsERNS_8countersERNS0_21dht_storage_interfaceEONS0_9dht_stateE
libtorrent-rasterbar.so.10:_ZN10libtorrent3dht11dos_blocker8incomingERKN5boost4asio2ip7addressENSt6chrono10time_pointINS8_3_V212system_clockENS8_8durationIlSt5ratioILl1ELl1000000000EEEEEEPNS0_10dht_loggerE
libtorrent-rasterbar.so.10:_ZN10libtorrent3dht11dos_blockerC1Ev
libtorrent-rasterbar.so.10:_ZN10libtorrent3dht11dos_blockerC2Ev
libtorrent-rasterbar.so.10:_ZN10libtorrent3dht11generate_idERKN5boost4asio2ip7addressE
libtorrent-rasterbar.so.10:_ZN10libtorrent3dht11rpc_manager10add_our_idERNS_5entryE
libtorrent-rasterbar.so.10:_ZN10libtorrent3dht11rpc_manager11unreachableERKN5boost4asio2ip14basic_endpointINS4_3udpEEE
libtorrent-rasterbar.so.10:_ZN10libtorrent3dht11rpc_manager13free_observerEPv
libtorrent-rasterbar.so.10:_ZN10libtorrent3dht11rpc_manager17allocate_observerEv
libtorrent-rasterbar.so.10:_ZN10libtorrent3dht11rpc_manager4tickEv
libtorrent-rasterbar.so.10:_ZN10libtorrent3dht11rpc_manager6invokeERNS_5entryERKN5boost4asio2ip14basic_endpointINS6_3udpEEESt10shared_ptrINS0_8observerEE
libtorrent-rasterbar.so.10:_ZN10libtorrent3dht11rpc_manager8incomingERKNS0_3msgEPNS_8digest32ILl160EEE
libtorrent-rasterbar.so.10:_ZN10libtorrent3dht11rpc_managerC1ERKNS_8digest32ILl160EEERKNS0_12dht_settingsERNS0_13routing_tableERKNS_3aux20listen_socket_handleEPNS0_14socket_managerEPNS0_10dht_loggerE
libtorrent-rasterbar.so.10:_ZN10libtorrent3dht11rpc_managerC2ERKNS_8digest32ILl160EEERKNS0_12dht_settingsERNS0_13routing_tableERKNS_3aux20listen_socket_handleEPNS0_14socket_managerEPNS0_10dht_loggerE
libtorrent-rasterbar.so.10:_ZN10libtorrent3dht11rpc_managerD1Ev
libtorrent-rasterbar.so.10:_ZN10libtorrent3dht11rpc_managerD2Ev
libtorrent-rasterbar.so.10:_ZN10libtorrent3dht12distance_expERKNS_8digest32ILl160EEES4_
libtorrent-rasterbar.so.10:_ZN10libtorrent3dht12ed25519_signENS_4spanIKcEERKNS0_10public_keyERKNS0_10secret_keyE
libtorrent-rasterbar.so.10:_ZN10libtorrent3dht13routing_table11find_bucketERKNS_8digest32ILl160EEE
libtorrent-rasterbar.so.10:_ZN10libtorrent3dht13routing_table11heard_aboutERKNS_8digest32ILl160EEERKN5boost4asio2ip14basic_endpointINS8_3udpEEE
libtorrent-rasterbar.so.10:_ZN10libtorrent3dht13routing_table11node_failedERKNS_8digest32ILl160EEERKN5boost4asio2ip14basic_endpointINS8_3udpEEE
libtorrent-rasterbar.so.10:_ZN10libtorrent3dht13routing_table11remove_nodeEPNS0_10node_entryEPNS_3aux17container_wrapperIS2_iSt6vectorIS2_SaIS2_EEEE
libtorrent-rasterbar.so.10:_ZN10libtorrent3dht13routing_table12next_refreshEv
libtorrent-rasterbar.so.10:_ZN10libtorrent3dht13routing_table12split_bucketEv
libtorrent-rasterbar.so.10:_ZN10libtorrent3dht13routing_table13add_node_implENS0_10node_entryE
libtorrent-rasterbar.so.10:_ZN10libtorrent3dht13routing_table14update_node_idERKNS_8digest32ILl160EEE
libtorrent-rasterbar.so.10:_ZN10libtorrent3dht13routing_table15add_router_nodeERKN5boost4asio2ip14basic_endpointINS4_3udpEEE
libtorrent-rasterbar.so.10:_ZN10libtorrent3dht13routing_table18prune_empty_bucketEv
libtorrent-rasterbar.so.10:_ZN10libtorrent3dht13routing_table22fill_from_replacementsEN9__gnu_cxx17__normal_iteratorIPNS0_18routing_table_nodeESt6vectorIS4_SaIS4_EEEE
libtorrent-rasterbar.so.10:_ZN10libtorrent3dht13routing_table8add_nodeERKNS0_10node_entryE
libtorrent-rasterbar.so.10:_ZN10libtorrent3dht13routing_table9find_nodeERKN5boost4asio2ip14basic_endpointINS4_3udpEEE
libtorrent-rasterbar.so.10:_ZN10libtorrent3dht13routing_table9find_nodeERKNS_8digest32ILl160EEERSt6vectorINS0_10node_entryESaIS7_EEii
libtorrent-rasterbar.so.10:_ZN10libtorrent3dht13routing_table9node_seenERKNS_8digest32ILl160EEERKN5boost4asio2ip14basic_endpointINS8_3udpEEEi
libtorrent-rasterbar.so.10:_ZN10libtorrent3dht13routing_tableC1ERKNS_8digest32ILl160EEEN5boost4asio2ip3udpEiRKNS0_8settingsEPNS0_10dht_loggerE
libtorrent-rasterbar.so.10:_ZN10libtorrent3dht13routing_tableC2ERKNS_8digest32ILl160EEEN5boost4asio2ip3udpEiRKNS0_8settingsEPNS0_10dht_loggerE
libtorrent-rasterbar.so.10:_ZN10libtorrent3dht14ed25519_verifyERKNS0_9signatureENS_4spanIKcEERKNS0_10public_keyE
libtorrent-rasterbar.so.10:_ZN10libtorrent3dht14item_target_idENS_4spanIKcEE
libtorrent-rasterbar.so.10:_ZN10libtorrent3dht14item_target_idENS_4spanIKcEERKNS0_10public_keyE
libtorrent-rasterbar.so.10:_ZN10libtorrent3dht14make_id_secretERNS_8digest32ILl160EEE
libtorrent-rasterbar.so.10:_ZN10libtorrent3dht14read_dht_stateERKNS_12bdecode_nodeE
libtorrent-rasterbar.so.10:_ZN10libtorrent3dht14save_dht_stateERKNS0_9dht_stateE
libtorrent-rasterbar.so.10:_ZN10libtorrent3dht15classify_prefixEibiNS_8digest32ILl160EEE
libtorrent-rasterbar.so.10:_ZN10libtorrent3dht15compare_ip_cidrERKN5boost4asio2ip7addressES6_
libtorrent-rasterbar.so.10:_ZN10libtorrent3dht15matching_prefixERKNS_8digest32ILl160EEEiii
libtorrent-rasterbar.so.10:_ZN10libtorrent3dht16extract_node_idsERKNS_12bdecode_nodeEN5boost17basic_string_viewIcSt11char_traitsIcEEE
libtorrent-rasterbar.so.10:_ZN10libtorrent3dht16generate_id_implERKN5boost4asio2ip7addressEj
libtorrent-rasterbar.so.10:_ZN10libtorrent3dht16min_distance_expERKNS_8digest32ILl160EEERKSt6vectorIS2_SaIS2_EE
libtorrent-rasterbar.so.10:_ZN10libtorrent3dht16verify_secret_idERKNS_8digest32ILl160EEE
libtorrent-rasterbar.so.10:_ZN10libtorrent3dht17read_dht_settingsERKNS_12bdecode_nodeE
libtorrent-rasterbar.so.10:_ZN10libtorrent3dht17replace_node_implERKNS0_10node_entryERNS_3aux17container_wrapperIS1_iSt6vectorIS1_SaIS1_EEEERNS0_6ip_setEiibPNS0_10dht_loggerE
libtorrent-rasterbar.so.10:_ZN10libtorrent3dht17save_dht_settingsERKNS0_12dht_settingsE
libtorrent-rasterbar.so.10:_ZN10libtorrent3dht17sign_mutable_itemENS_4spanIKcEES3_NS0_15sequence_numberERKNS0_10public_keyERKNS0_10secret_keyE
libtorrent-rasterbar.so.10:_ZN10libtorrent3dht17write_nodes_entryERKSt6vectorINS0_10node_entryESaIS2_EE
libtorrent-rasterbar.so.10:_ZN10libtorrent3dht18all_in_same_bucketENS_4spanIKNS0_10node_entryEEERKNS_8digest32ILl160EEEi
libtorrent-rasterbar.so.10:_ZN10libtorrent3dht18ed25519_add_scalarERKNS0_10public_keyERKSt5arrayIcLm32EE
libtorrent-rasterbar.so.10:_ZN10libtorrent3dht18ed25519_add_scalarERKNS0_10secret_keyERKSt5arrayIcLm32EE
libtorrent-rasterbar.so.10:_ZN10libtorrent3dht18generate_random_idEv
libtorrent-rasterbar.so.10:_ZN10libtorrent3dht18generate_secret_idEv
libtorrent-rasterbar.so.10:_ZN10libtorrent3dht19ed25519_create_seedEv
libtorrent-rasterbar.so.10:_ZN10libtorrent3dht19traversal_algorithm12add_requestsEv
libtorrent-rasterbar.so.10:_ZN10libtorrent3dht19traversal_algorithm12new_observerERKN5boost4asio2ip14basic_endpointINS4_3udpEEERKNS_8digest32ILl160EEE
libtorrent-rasterbar.so.10:_ZN10libtorrent3dht19traversal_algorithm13resort_resultEPNS0_8observerE
libtorrent-rasterbar.so.10:_ZN10libtorrent3dht19traversal_algorithm18add_router_entriesEv
libtorrent-rasterbar.so.10:_ZN10libtorrent3dht19traversal_algorithm4doneEv
libtorrent-rasterbar.so.10:_ZN10libtorrent3dht19traversal_algorithm4initEv
libtorrent-rasterbar.so.10:_ZN10libtorrent3dht19traversal_algorithm5startEv
libtorrent-rasterbar.so.10:_ZN10libtorrent3dht19traversal_algorithm6failedESt10shared_ptrINS0_8observerEENS_5flags13bitfield_flagIhNS0_19traversal_flags_tagEvEE
libtorrent-rasterbar.so.10:_ZN10libtorrent3dht19traversal_algorithm6statusERNS_10dht_lookupE
libtorrent-rasterbar.so.10:_ZN10libtorrent3dht19traversal_algorithm8finishedESt10shared_ptrINS0_8observerEE
libtorrent-rasterbar.so.10:_ZN10libtorrent3dht19traversal_algorithm8traverseERKNS_8digest32ILl160EEERKN5boost4asio2ip14basic_endpointINS8_3udpEEE
libtorrent-rasterbar.so.10:_ZN10libtorrent3dht19traversal_algorithm9add_entryERKNS_8digest32ILl160EEERKN5boost4asio2ip14basic_endpointINS8_3udpEEENS_5flags13bitfield_flagIhNS0_18observer_flags_tagEvEE
libtorrent-rasterbar.so.10:_ZN10libtorrent3dht19traversal_algorithmC1ERNS0_4nodeERKNS_8digest32ILl160EEE
libtorrent-rasterbar.so.10:_ZN10libtorrent3dht19traversal_algorithmC2ERNS0_4nodeERKNS_8digest32ILl160EEE
libtorrent-rasterbar.so.10:_ZN10libtorrent3dht19traversal_algorithmD0Ev
libtorrent-rasterbar.so.10:_ZN10libtorrent3dht19traversal_algorithmD1Ev
libtorrent-rasterbar.so.10:_ZN10libtorrent3dht19traversal_algorithmD2Ev
libtorrent-rasterbar.so.10:_ZN10libtorrent3dht19verify_message_implERKNS_12bdecode_nodeENS_4spanIKNS0_10key_desc_tEEENS4_IS1_EENS4_IcEE
libtorrent-rasterbar.so.10:_ZN10libtorrent3dht19verify_mutable_itemENS_4spanIKcEES3_NS0_15sequence_numberERKNS0_10public_keyERKNS0_9signatureE
libtorrent-rasterbar.so.10:_ZN10libtorrent3dht20dht_storage_counters5resetEv
libtorrent-rasterbar.so.10:_ZN10libtorrent3dht20ed25519_key_exchangeERKNS0_10public_keyERKNS0_10secret_keyE
libtorrent-rasterbar.so.10:_ZN10libtorrent3dht20generate_prefix_maskEi
libtorrent-rasterbar.so.10:_ZN10libtorrent3dht21mostly_verified_nodesERKNS_3aux17container_wrapperINS0_10node_entryEiSt6vectorIS3_SaIS3_EEEE
libtorrent-rasterbar.so.10:_ZN10libtorrent3dht22ed25519_create_keypairERKSt5arrayIcLm32EE
libtorrent-rasterbar.so.10:_ZN10libtorrent3dht31dht_default_storage_constructorERKNS0_12dht_settingsE
libtorrent-rasterbar.so.10:_ZN10libtorrent3dht4item6assignENS_5entryE
libtorrent-rasterbar.so.10:_ZN10libtorrent3dht4item6assignENS_5entryENS_4spanIKcEENS0_15sequence_numberERKNS0_10public_keyERKNS0_10secret_keyE
libtorrent-rasterbar.so.10:_ZN10libtorrent3dht4item6assignENS_5entryENS_4spanIKcEENS0_15sequence_numberERKNS0_10public_keyERKNS0_9signatureE
libtorrent-rasterbar.so.10:_ZN10libtorrent3dht4item6assignERKNS_12bdecode_nodeE
libtorrent-rasterbar.so.10:_ZN10libtorrent3dht4item6assignERKNS_12bdecode_nodeENS_4spanIKcEENS0_15sequence_numberERKNS0_10public_keyERKNS0_9signatureE
libtorrent-rasterbar.so.10:_ZN10libtorrent3dht4itemC1ENS_5entryE
libtorrent-rasterbar.so.10:_ZN10libtorrent3dht4itemC1ENS_5entryENS_4spanIKcEENS0_15sequence_numberERKNS0_10public_keyERKNS0_10secret_keyE
libtorrent-rasterbar.so.10:_ZN10libtorrent3dht4itemC1ERKNS0_10public_keyENS_4spanIKcEE
libtorrent-rasterbar.so.10:_ZN10libtorrent3dht4itemC1ERKNS_12bdecode_nodeE
libtorrent-rasterbar.so.10:_ZN10libtorrent3dht4itemC2ENS_5entryE
libtorrent-rasterbar.so.10:_ZN10libtorrent3dht4itemC2ENS_5entryENS_4spanIKcEENS0_15sequence_numberERKNS0_10public_keyERKNS0_10secret_keyE
libtorrent-rasterbar.so.10:_ZN10libtorrent3dht4itemC2ERKNS0_10public_keyENS_4spanIKcEE
libtorrent-rasterbar.so.10:_ZN10libtorrent3dht4itemC2ERKNS_12bdecode_nodeE
libtorrent-rasterbar.so.10:_ZN10libtorrent3dht4node11bucket_sizeEi
libtorrent-rasterbar.so.10:_ZN10libtorrent3dht4node11unreachableERKN5boost4asio2ip14basic_endpointINS4_3udpEEE
libtorrent-rasterbar.so.10:_ZN10libtorrent3dht4node13new_write_keyEv
libtorrent-rasterbar.so.10:_ZN10libtorrent3dht4node14direct_requestERKN5boost4asio2ip14basic_endpointINS4_3udpEEERNS_5entryESt8functionIFvRKNS0_3msgEEE
libtorrent-rasterbar.so.10:_ZN10libtorrent3dht4node14generate_tokenB5cxx11ERKN5boost4asio2ip14basic_endpointINS4_3udpEEERKNS_8digest32ILl160EEE
libtorrent-rasterbar.so.10:_ZN10libtorrent3dht4node14update_node_idEv
libtorrent-rasterbar.so.10:_ZN10libtorrent3dht4node15add_router_nodeERKN5boost4asio2ip14basic_endpointINS4_3udpEEE
libtorrent-rasterbar.so.10:_ZN10libtorrent3dht4node16incoming_requestERKNS0_3msgERNS_5entryE
libtorrent-rasterbar.so.10:_ZN10libtorrent3dht4node17sample_infohashesERKN5boost4asio2ip14basic_endpointINS4_3udpEEERKNS_8digest32ILl160EEESt8functionIFvNSt6chrono8durationIlSt5ratioILl1ELl1000000000EEEEiSt6vectorISB_SaISB_EESK_ISt4pairISB_S7_ESaISO_EEEE
libtorrent-rasterbar.so.10:_ZN10libtorrent3dht4node18connection_timeoutEv
libtorrent-rasterbar.so.10:_ZN10libtorrent3dht4node19send_single_refreshERKN5boost4asio2ip14basic_endpointINS4_3udpEEEiRKNS_8digest32ILl160EEE
libtorrent-rasterbar.so.10:_ZN10libtorrent3dht4node19write_nodes_entriesERKNS_8digest32ILl160EEERKNS_12bdecode_nodeERNS_5entryE
libtorrent-rasterbar.so.10:_ZN10libtorrent3dht4node26map_protocol_to_descriptorEN5boost4asio2ip3udpE
libtorrent-rasterbar.so.10:_ZN10libtorrent3dht4node4tickEv
libtorrent-rasterbar.so.10:_ZN10libtorrent3dht4node6statusERNS_14session_statusE
libtorrent-rasterbar.so.10:_ZN10libtorrent3dht4node6statusERSt6vectorINS_18dht_routing_bucketESaIS3_EERS2_INS_10dht_lookupESaIS7_EE
libtorrent-rasterbar.so.10:_ZN10libtorrent3dht4node8add_nodeERKN5boost4asio2ip14basic_endpointINS4_3udpEEE
libtorrent-rasterbar.so.10:_ZN10libtorrent3dht4node8announceERKNS_8digest32ILl160EEEiNS_5flags13bitfield_flagIhNS0_21dht_announce_flag_tagEvEESt8functionIFvRKSt6vectorIN5boost4asio2ip14basic_endpointINSE_3tcpEEESaISH_EEEE
libtorrent-rasterbar.so.10:_ZN10libtorrent3dht4node8get_itemERKNS0_10public_keyERKNSt7__cxx1112basic_stringIcSt11char_traitsIcESaIcEEESt8functionIFvRKNS0_4itemEbEE
libtorrent-rasterbar.so.10:_ZN10libtorrent3dht4node8get_itemERKNS_8digest32ILl160EEESt8functionIFvRKNS0_4itemEEE
libtorrent-rasterbar.so.10:_ZN10libtorrent3dht4node8incomingERKNS_3aux20listen_socket_handleERKNS0_3msgE
libtorrent-rasterbar.so.10:_ZN10libtorrent3dht4node8put_itemERKNS0_10public_keyERKNSt7__cxx1112basic_stringIcSt11char_traitsIcESaIcEEESt8functionIFvRKNS0_4itemEiEESD_IFvRSE_EE
libtorrent-rasterbar.so.10:_ZN10libtorrent3dht4node8put_itemERKNS_8digest32ILl160EEERKNS_5entryESt8functionIFviEE
libtorrent-rasterbar.so.10:_ZN10libtorrent3dht4node9bootstrapERKSt6vectorIN5boost4asio2ip14basic_endpointINS5_3udpEEESaIS8_EERKSt8functionIFvRKS2_ISt4pairINS0_10node_entryENSt7__cxx1112basic_stringIcSt11char_traitsIcESaIcEEEESaISM_EEEE
libtorrent-rasterbar.so.10:_ZN10libtorrent3dht4node9get_peersERKNS_8digest32ILl160EEESt8functionIFvRKSt6vectorIN5boost4asio2ip14basic_endpointINSA_3tcpEEESaISD_EEEES6_IFvRKS7_ISt4pairINS0_10node_entryENSt7__cxx1112basic_stringIcSt11char_traitsIcESaIcEEEESaISS_EEEENS_5flags13bitfield_flagIhNS0_21dht_announce_flag_tagEvEE
libtorrent-rasterbar.so.10:_ZN10libtorrent3dht4nodeC1ERKNS_3aux20listen_socket_handleEPNS0_14socket_managerERKNS0_8settingsERKNS_8digest32ILl160EEEPNS0_12dht_observerERNS_8countersESt8functionIFPS1_SE_RKNSt7__cxx1112basic_stringIcSt11char_traitsIcESaIcEEEEERNS0_21dht_storage_interfaceE
libtorrent-rasterbar.so.10:_ZN10libtorrent3dht4nodeC2ERKNS_3aux20listen_socket_handleEPNS0_14socket_managerERKNS0_8settingsERKNS_8digest32ILl160EEEPNS0_12dht_observerERNS_8countersESt8functionIFPS1_SE_RKNSt7__cxx1112basic_stringIcSt11char_traitsIcESaIcEEEEERNS0_21dht_storage_interfaceE
libtorrent-rasterbar.so.10:_ZN10libtorrent3dht4nodeD1Ev
libtorrent-rasterbar.so.10:_ZN10libtorrent3dht4nodeD2Ev
libtorrent-rasterbar.so.10:_ZN10libtorrent3dht6ip_set5eraseERKN5boost4asio2ip7addressE
libtorrent-rasterbar.so.10:_ZN10libtorrent3dht6ip_set6insertERKN5boost4asio2ip7addressE
libtorrent-rasterbar.so.10:_ZN10libtorrent3dht8distanceERKNS_8digest32ILl160EEES4_
libtorrent-rasterbar.so.10:_ZN10libtorrent3dht8observer10set_targetERKN5boost4asio2ip14basic_endpointINS4_3udpEEE
libtorrent-rasterbar.so.10:_ZN10libtorrent3dht8observer13short_timeoutEv
libtorrent-rasterbar.so.10:_ZN10libtorrent3dht8observer4doneEv
libtorrent-rasterbar.so.10:_ZN10libtorrent3dht8observer5abortEv
libtorrent-rasterbar.so.10:_ZN10libtorrent3dht8observer6set_idERKNS_8digest32ILl160EEE
libtorrent-rasterbar.so.10:_ZN10libtorrent3dht8observer7timeoutEv
libtorrent-rasterbar.so.10:_ZN10libtorrent3dht8observerD0Ev
libtorrent-rasterbar.so.10:_ZN10libtorrent3dht8observerD1Ev
libtorrent-rasterbar.so.10:_ZN10libtorrent3dht8observerD2Ev
libtorrent-rasterbar.so.10:_ZN10libtorrent3dht9dht_state5clearEv
libtorrent-rasterbar.so.10:_ZN10libtorrent3dht9verify_idERKNS_8digest32ILl160EEERKN5boost4asio2ip7addressE
libtorrent-rasterbar.so.10:_ZN10libtorrent4file4openERKNSt7__cxx1112basic_stringIcSt11char_traitsIcESaIcEEENS_5flags13bitfield_flagIjNS_13open_mode_tagEvEERN5boost6system10error_codeE
libtorrent-rasterbar.so.10:_ZN10libtorrent4file5closeEv
libtorrent-rasterbar.so.10:_ZN10libtorrent4file5readvElNS_4spanIKNS1_IcEEEERN5boost6system10error_codeENS_5flags13bitfield_flagIjNS_13open_mode_tagEvEE
libtorrent-rasterbar.so.10:_ZN10libtorrent4file6writevElNS_4spanIKNS1_IcEEEERN5boost6system10error_codeENS_5flags13bitfield_flagIjNS_13open_mode_tagEvEE
libtorrent-rasterbar.so.10:_ZN10libtorrent4file8set_sizeElRN5boost6system10error_codeE
libtorrent-rasterbar.so.10:_ZN10libtorrent4fileC1EOS0_
libtorrent-rasterbar.so.10:_ZN10libtorrent4fileC1ERKNSt7__cxx1112basic_stringIcSt11char_traitsIcESaIcEEENS_5flags13bitfield_flagIjNS_13open_mode_tagEvEERN5boost6system10error_codeE
libtorrent-rasterbar.so.10:_ZN10libtorrent4fileC1Ev
libtorrent-rasterbar.so.10:_ZN10libtorrent4fileC2EOS0_
libtorrent-rasterbar.so.10:_ZN10libtorrent4fileC2ERKNSt7__cxx1112basic_stringIcSt11char_traitsIcESaIcEEENS_5flags13bitfield_flagIjNS_13open_mode_tagEvEERN5boost6system10error_codeE
libtorrent-rasterbar.so.10:_ZN10libtorrent4fileC2Ev
libtorrent-rasterbar.so.10:_ZN10libtorrent4fileD1Ev
libtorrent-rasterbar.so.10:_ZN10libtorrent4fileD2Ev
libtorrent-rasterbar.so.10:_ZN10libtorrent4fileaSEOS0_
libtorrent-rasterbar.so.10:_ZN10libtorrent4findEN5boost17basic_string_viewIcSt11char_traitsIcEEES4_m
libtorrent-rasterbar.so.10:_ZN10libtorrent4trimEN5boost17basic_string_viewIcSt11char_traitsIcEEE
libtorrent-rasterbar.so.10:_ZN10libtorrent4upnp10rootdeviceC1EOS1_
libtorrent-rasterbar.so.10:_ZN10libtorrent4upnp10rootdeviceC1ERKS1_
libtorrent-rasterbar.so.10:_ZN10libtorrent4upnp10rootdeviceC1Ev
libtorrent-rasterbar.so.10:_ZN10libtorrent4upnp10rootdeviceC2EOS1_
libtorrent-rasterbar.so.10:_ZN10libtorrent4upnp10rootdeviceC2ERKS1_
libtorrent-rasterbar.so.10:_ZN10libtorrent4upnp10rootdeviceC2Ev
libtorrent-rasterbar.so.10:_ZN10libtorrent4upnp10rootdeviceD1Ev
libtorrent-rasterbar.so.10:_ZN10libtorrent4upnp10rootdeviceD2Ev
libtorrent-rasterbar.so.10:_ZN10libtorrent4upnp10rootdeviceaSEOS1_
libtorrent-rasterbar.so.10:_ZN10libtorrent4upnp10rootdeviceaSERKS1_
libtorrent-rasterbar.so.10:_ZN10libtorrent4upnp10update_mapERNS0_10rootdeviceENS_3aux14strong_typedefIiNS_16port_mapping_tagEvEE
libtorrent-rasterbar.so.10:_ZN10libtorrent4upnp11add_mappingENS_16portmap_protocolEiN5boost4asio2ip14basic_endpointINS4_3tcpEEE
libtorrent-rasterbar.so.10:_ZN10libtorrent4upnp11on_upnp_xmlERKN5boost6system10error_codeERKNS_11http_parserERNS0_10rootdeviceERNS_15http_connectionE
libtorrent-rasterbar.so.10:_ZN10libtorrent4upnp12return_errorENS_3aux14strong_typedefIiNS_16port_mapping_tagEvEEi
libtorrent-rasterbar.so.10:_ZN10libtorrent4upnp12try_map_upnpEv
libtorrent-rasterbar.so.10:_ZN10libtorrent4upnp14delete_mappingENS_3aux14strong_typedefIiNS_16port_mapping_tagEvEE
libtorrent-rasterbar.so.10:_ZN10libtorrent4upnp14get_ip_addressERNS0_10rootdeviceE
libtorrent-rasterbar.so.10:_ZN10libtorrent4upnp14resend_requestERKN5boost6system10error_codeE
libtorrent-rasterbar.so.10:_ZN10libtorrent4upnp19create_port_mappingERNS_15http_connectionERNS0_10rootdeviceENS_3aux14strong_typedefIiNS_16port_mapping_tagEvEE
libtorrent-rasterbar.so.10:_ZN10libtorrent4upnp19delete_port_mappingERNS0_10rootdeviceENS_3aux14strong_typedefIiNS_16port_mapping_tagEvEE
libtorrent-rasterbar.so.10:_ZN10libtorrent4upnp19open_unicast_socketERN5boost4asio21basic_datagram_socketINS2_2ip3udpENS2_8executorEEERNS1_6system10error_codeE
libtorrent-rasterbar.so.10:_ZN10libtorrent4upnp20discover_device_implEv
libtorrent-rasterbar.so.10:_ZN10libtorrent4upnp20on_upnp_map_responseERKN5boost6system10error_codeERKNS_11http_parserERNS0_10rootdeviceENS_3aux14strong_typedefIiNS_16port_mapping_tagEvEERNS_15http_connectionE
libtorrent-rasterbar.so.10:_ZN10libtorrent4upnp21open_multicast_socketERN5boost4asio21basic_datagram_socketINS2_2ip3udpENS2_8executorEEERNS1_6system10error_codeE
libtorrent-rasterbar.so.10:_ZN10libtorrent4upnp22on_upnp_unmap_responseERKN5boost6system10error_codeERKNS_11http_parserERNS0_10rootdeviceENS_3aux14strong_typedefIiNS_16port_mapping_tagEvEERNS_15http_connectionE
libtorrent-rasterbar.so.10:_ZN10libtorrent4upnp31on_upnp_get_ip_address_responseERKN5boost6system10error_codeERKNS_11http_parserERNS0_10rootdeviceERNS_15http_connectionE
libtorrent-rasterbar.so.10:_ZN10libtorrent4upnp4nextERNS0_10rootdeviceENS_3aux14strong_typedefIiNS_16port_mapping_tagEvEE
libtorrent-rasterbar.so.10:_ZN10libtorrent4upnp4postERKNS0_10rootdeviceEPKcS5_
libtorrent-rasterbar.so.10:_ZN10libtorrent4upnp5closeEv
libtorrent-rasterbar.so.10:_ZN10libtorrent4upnp5startEv
libtorrent-rasterbar.so.10:_ZN10libtorrent4upnp7connectERNS0_10rootdeviceE
libtorrent-rasterbar.so.10:_ZN10libtorrent4upnp7disableERKN5boost6system10error_codeE
libtorrent-rasterbar.so.10:_ZN10libtorrent4upnp8on_replyERN5boost4asio21basic_datagram_socketINS2_2ip3udpENS2_8executorEEERKNS1_6system10error_codeE
libtorrent-rasterbar.so.10:_ZN10libtorrent4upnp9map_timerERKN5boost6system10error_codeE
libtorrent-rasterbar.so.10:_ZN10libtorrent4upnp9on_expireERKN5boost6system10error_codeE
libtorrent-rasterbar.so.10:_ZN10libtorrent4upnpC1ERN5boost4asio10io_contextERKNS_3aux16session_settingsERNS5_16portmap_callbackERKNS2_2ip10address_v4ESE_NSt7__cxx1112basic_stringIcSt11char_traitsIcESaIcEEE
libtorrent-rasterbar.so.10:_ZN10libtorrent4upnpC2ERN5boost4asio10io_contextERKNS_3aux16session_settingsERNS5_16portmap_callbackERKNS2_2ip10address_v4ESE_NSt7__cxx1112basic_stringIcSt11char_traitsIcESaIcEEE
libtorrent-rasterbar.so.10:_ZN10libtorrent4upnpD1Ev
libtorrent-rasterbar.so.10:_ZN10libtorrent4upnpD2Ev
libtorrent-rasterbar.so.10:_ZN10libtorrent5alertC1Ev
libtorrent-rasterbar.so.10:_ZN10libtorrent5alertC2Ev
libtorrent-rasterbar.so.10:_ZN10libtorrent5alertD0Ev
libtorrent-rasterbar.so.10:_ZN10libtorrent5alertD1Ev
libtorrent-rasterbar.so.10:_ZN10libtorrent5alertD2Ev
libtorrent-rasterbar.so.10:_ZN10libtorrent5entry12preformattedEv
libtorrent-rasterbar.so.10:_ZN10libtorrent5entry4copyERKS0_
libtorrent-rasterbar.so.10:_ZN10libtorrent5entry4dictB5cxx11Ev
libtorrent-rasterbar.so.10:_ZN10libtorrent5entry4listEv
libtorrent-rasterbar.so.10:_ZN10libtorrent5entry4swapERS0_
libtorrent-rasterbar.so.10:_ZN10libtorrent5entry6stringB5cxx11Ev
libtorrent-rasterbar.so.10:_ZN10libtorrent5entry7integerEv
libtorrent-rasterbar.so.10:_ZN10libtorrent5entry8destructEv
libtorrent-rasterbar.so.10:_ZN10libtorrent5entry8find_keyEN5boost17basic_string_viewIcSt11char_traitsIcEEE
libtorrent-rasterbar.so.10:_ZN10libtorrent5entry9constructENS0_9data_typeE
libtorrent-rasterbar.so.10:_ZN10libtorrent5entryC1ENS0_9data_typeE
libtorrent-rasterbar.so.10:_ZN10libtorrent5entryC1ENS_4spanIKcEE
libtorrent-rasterbar.so.10:_ZN10libtorrent5entryC1EOS0_
libtorrent-rasterbar.so.10:_ZN10libtorrent5entryC1ERKNS_12bdecode_nodeE
libtorrent-rasterbar.so.10:_ZN10libtorrent5entryC1ERKS0_
libtorrent-rasterbar.so.10:_ZN10libtorrent5entryC1ESt3mapINSt7__cxx1112basic_stringIcSt11char_traitsIcESaIcEEES0_NS_3aux12strview_lessESaISt4pairIKS7_S0_EEE
libtorrent-rasterbar.so.10:_ZN10libtorrent5entryC1ESt6vectorIS0_SaIS0_EE
libtorrent-rasterbar.so.10:_ZN10libtorrent5entryC1ESt6vectorIcSaIcEE
libtorrent-rasterbar.so.10:_ZN10libtorrent5entryC1El
libtorrent-rasterbar.so.10:_ZN10libtorrent5entryC1Ev
libtorrent-rasterbar.so.10:_ZN10libtorrent5entryC2ENS0_9data_typeE
libtorrent-rasterbar.so.10:_ZN10libtorrent5entryC2ENS_4spanIKcEE
libtorrent-rasterbar.so.10:_ZN10libtorrent5entryC2EOS0_
libtorrent-rasterbar.so.10:_ZN10libtorrent5entryC2ERKNS_12bdecode_nodeE
libtorrent-rasterbar.so.10:_ZN10libtorrent5entryC2ERKS0_
libtorrent-rasterbar.so.10:_ZN10libtorrent5entryC2ESt3mapINSt7__cxx1112basic_stringIcSt11char_traitsIcESaIcEEES0_NS_3aux12strview_lessESaISt4pairIKS7_S0_EEE
libtorrent-rasterbar.so.10:_ZN10libtorrent5entryC2ESt6vectorIS0_SaIS0_EE
libtorrent-rasterbar.so.10:_ZN10libtorrent5entryC2ESt6vectorIcSaIcEE
libtorrent-rasterbar.so.10:_ZN10libtorrent5entryC2El
libtorrent-rasterbar.so.10:_ZN10libtorrent5entryC2Ev
libtorrent-rasterbar.so.10:_ZN10libtorrent5entryD1Ev
libtorrent-rasterbar.so.10:_ZN10libtorrent5entryD2Ev
libtorrent-rasterbar.so.10:_ZN10libtorrent5entryixEN5boost17basic_string_viewIcSt11char_traitsIcEEE
libtorrent-rasterbar.so.10:_ZN10libtorrent6crc32cEPKmi
libtorrent-rasterbar.so.10:_ZN10libtorrent6detail14integer_to_strENS_4spanIcEEl
libtorrent-rasterbar.so.10:_ZN10libtorrent6errors15make_error_codeENS0_15error_code_enumE
libtorrent-rasterbar.so.10:_ZN10libtorrent6existsERKNSt7__cxx1112basic_stringIcSt11char_traitsIcESaIcEEE
libtorrent-rasterbar.so.10:_ZN10libtorrent6existsERKNSt7__cxx1112basic_stringIcSt11char_traitsIcESaIcEEERN5boost6system10error_codeE
libtorrent-rasterbar.so.10:_ZN10libtorrent6familyERKN5boost4asio2ip7addressE
libtorrent-rasterbar.so.10:_ZN10libtorrent6hasher5finalEv
libtorrent-rasterbar.so.10:_ZN10libtorrent6hasher5resetEv
libtorrent-rasterbar.so.10:_ZN10libtorrent6hasher6updateENS_4spanIKcEE
libtorrent-rasterbar.so.10:_ZN10libtorrent6hasher6updateEPKci
libtorrent-rasterbar.so.10:_ZN10libtorrent6hasherC1ENS_4spanIKcEE
libtorrent-rasterbar.so.10:_ZN10libtorrent6hasherC1EPKci
libtorrent-rasterbar.so.10:_ZN10libtorrent6hasherC1ERKS0_
libtorrent-rasterbar.so.10:_ZN10libtorrent6hasherC1Ev
libtorrent-rasterbar.so.10:_ZN10libtorrent6hasherC2ENS_4spanIKcEE
libtorrent-rasterbar.so.10:_ZN10libtorrent6hasherC2EPKci
libtorrent-rasterbar.so.10:_ZN10libtorrent6hasherC2ERKS0_
libtorrent-rasterbar.so.10:_ZN10libtorrent6hasherC2Ev
libtorrent-rasterbar.so.10:_ZN10libtorrent6hasherD1Ev
libtorrent-rasterbar.so.10:_ZN10libtorrent6hasherD2Ev
libtorrent-rasterbar.so.10:_ZN10libtorrent6is_anyERKN5boost4asio2ip7addressE
libtorrent-rasterbar.so.10:_ZN10libtorrent6natpmp10close_implEv
libtorrent-rasterbar.so.10:_ZN10libtorrent6natpmp11add_mappingENS_16portmap_protocolEiN5boost4asio2ip14basic_endpointINS4_3tcpEEE
libtorrent-rasterbar.so.10:_ZN10libtorrent6natpmp14delete_mappingENS_3aux14strong_typedefIiNS_16port_mapping_tagEvEE
libtorrent-rasterbar.so.10:_ZN10libtorrent6natpmp14resend_requestENS_3aux14strong_typedefIiNS_16port_mapping_tagEvEE
libtorrent-rasterbar.so.10:_ZN10libtorrent6natpmp14update_mappingENS_3aux14strong_typedefIiNS_16port_mapping_tagEvEE
libtorrent-rasterbar.so.10:_ZN10libtorrent6natpmp15mapping_expiredERKN5boost6system10error_codeENS_3aux14strong_typedefIiNS_16port_mapping_tagEvEE
libtorrent-rasterbar.so.10:_ZN10libtorrent6natpmp16from_result_codeEii
libtorrent-rasterbar.so.10:_ZN10libtorrent6natpmp16send_map_requestENS_3aux14strong_typedefIiNS_16port_mapping_tagEvEE
libtorrent-rasterbar.so.10:_ZN10libtorrent6natpmp16try_next_mappingENS_3aux14strong_typedefIiNS_16port_mapping_tagEvEE
libtorrent-rasterbar.so.10:_ZN10libtorrent6natpmp17on_resend_requestENS_3aux14strong_typedefIiNS_16port_mapping_tagEvEERKN5boost6system10error_codeE
libtorrent-rasterbar.so.10:_ZN10libtorrent6natpmp17version_to_stringENS0_16protocol_versionE
libtorrent-rasterbar.so.10:_ZN10libtorrent6natpmp23update_expiration_timerEv
libtorrent-rasterbar.so.10:_ZN10libtorrent6natpmp27send_get_ip_address_requestEv
libtorrent-rasterbar.so.10:_ZN10libtorrent6natpmp5closeEv
libtorrent-rasterbar.so.10:_ZN10libtorrent6natpmp5startERKNS_12ip_interfaceE
libtorrent-rasterbar.so.10:_ZN10libtorrent6natpmp7disableERKN5boost6system10error_codeE
libtorrent-rasterbar.so.10:_ZN10libtorrent6natpmp8on_replyERKN5boost6system10error_codeEm
libtorrent-rasterbar.so.10:_ZN10libtorrent6natpmpC1ERN5boost4asio10io_contextERNS_3aux16portmap_callbackE
libtorrent-rasterbar.so.10:_ZN10libtorrent6natpmpC2ERN5boost4asio10io_contextERNS_3aux16portmap_callbackE
libtorrent-rasterbar.so.10:_ZN10libtorrent6randomEj
libtorrent-rasterbar.so.10:_ZN10libtorrent6removeERKNSt7__cxx1112basic_stringIcSt11char_traitsIcESaIcEEERN5boost6system10error_codeE
libtorrent-rasterbar.so.10:_ZN10libtorrent6renameERKNSt7__cxx1112basic_stringIcSt11char_traitsIcESaIcEEES7_RN5boost6system10error_codeE
libtorrent-rasterbar.so.10:_ZN10libtorrent6searchENS_4spanIKcEES2_
libtorrent-rasterbar.so.10:_ZN10libtorrent7bdecodeENS_4spanIKcEERN5boost6system10error_codeEPiii
libtorrent-rasterbar.so.10:_ZN10libtorrent7bdecodeENS_4spanIKcEEii
libtorrent-rasterbar.so.10:_ZN10libtorrent7bdecodeEPKcS1_RNS_12bdecode_nodeERN5boost6system10error_codeEPiii
libtorrent-rasterbar.so.10:_ZN10libtorrent7session5abortEv
libtorrent-rasterbar.so.10:_ZN10libtorrent7session5startENS_5flags13bitfield_flagIhNS_17session_flags_tagEvEEONS_13settings_packEPN5boost4asio10io_contextE
libtorrent-rasterbar.so.10:_ZN10libtorrent7session5startEONS_14session_paramsEPN5boost4asio10io_contextE
libtorrent-rasterbar.so.10:_ZN10libtorrent7sessionD1Ev
libtorrent-rasterbar.so.10:_ZN10libtorrent7sessionD2Ev
libtorrent-rasterbar.so.10:_ZN10libtorrent7torrent10choke_peerERNS_15peer_connectionE
libtorrent-rasterbar.so.10:_ZN10libtorrent7torrent10find_peersERKN5boost4asio2ip7addressE
libtorrent-rasterbar.so.10:_ZN10libtorrent7torrent10get_handleEv
libtorrent-rasterbar.so.10:_ZN10libtorrent7torrent10queue_downEv
libtorrent-rasterbar.so.10:_ZN10libtorrent7torrent10read_pieceENS_3aux14strong_typedefIiNS1_15piece_index_tagEvEE
libtorrent-rasterbar.so.10:_ZN10libtorrent7torrent10sent_bytesEii
libtorrent-rasterbar.so.10:_ZN10libtorrent7torrent10set_pausedEbNS_5flags13bitfield_flagIhNS_15pause_flags_tagEvEE
libtorrent-rasterbar.so.10:_ZN10libtorrent7torrent11add_trackerERKNS_14announce_entryE
libtorrent-rasterbar.so.10:_ZN10libtorrent7torrent11attach_peerEPNS_15peer_connectionE
libtorrent-rasterbar.so.10:_ZN10libtorrent7torrent11clear_errorEv
libtorrent-rasterbar.so.10:_ZN10libtorrent7torrent11clear_peersEv
libtorrent-rasterbar.so.10:_ZN10libtorrent7torrent11flush_cacheEv
libtorrent-rasterbar.so.10:_ZN10libtorrent7torrent11need_pickerEv
libtorrent-rasterbar.so.10:_ZN10libtorrent7torrent11remove_peerESt10shared_ptrINS_15peer_connectionEE
libtorrent-rasterbar.so.10:_ZN10libtorrent7torrent11rename_fileENS_3aux14strong_typedefIiNS1_14file_index_tagEvEENSt7__cxx1112basic_stringIcSt11char_traitsIcESaIcEEE
libtorrent-rasterbar.so.10:_ZN10libtorrent7torrent11second_tickEi
libtorrent-rasterbar.so.10:_ZN10libtorrent7torrent11update_listENS_3aux14strong_typedefIiNS_16torrent_list_tagEvEEb
libtorrent-rasterbar.so.10:_ZN10libtorrent7torrent12add_web_seedERKNSt7__cxx1112basic_stringIcSt11char_traitsIcESaIcEEENS_14web_seed_entry6type_tES8_RKSt6vectorISt4pairIS6_S6_ESaISD_EENS_5flags13bitfield_flagIhNS_17web_seed_flag_tagEvEE
libtorrent-rasterbar.so.10:_ZN10libtorrent7torrent12auto_managedEb
libtorrent-rasterbar.so.10:_ZN10libtorrent7torrent12cancel_blockENS_11piece_blockE
libtorrent-rasterbar.so.10:_ZN10libtorrent7torrent12delete_filesENS_5flags13bitfield_flagIhNS_16remove_flags_tagEvEE
libtorrent-rasterbar.so.10:_ZN10libtorrent7torrent12dht_announceEv
libtorrent-rasterbar.so.10:_ZN10libtorrent7torrent12find_trackerERKNSt7__cxx1112basic_stringIcSt11char_traitsIcESaIcEEE
libtorrent-rasterbar.so.10:_ZN10libtorrent7torrent12lsd_announceEv
libtorrent-rasterbar.so.10:_ZN10libtorrent7torrent12move_storageERKNSt7__cxx1112basic_stringIcSt11char_traitsIcESaIcEEENS_12move_flags_tE
libtorrent-rasterbar.so.10:_ZN10libtorrent7torrent12on_exceptionERKSt9exception
libtorrent-rasterbar.so.10:_ZN10libtorrent7torrent12peer_has_allEPKNS_15peer_connectionE
libtorrent-rasterbar.so.10:_ZN10libtorrent7torrent12peers_erasedERKSt6vectorIPNS_12torrent_peerESaIS3_EE
libtorrent-rasterbar.so.10:_ZN10libtorrent7torrent12piece_failedENS_3aux14strong_typedefIiNS1_15piece_index_tagEvEE
libtorrent-rasterbar.so.10:_ZN10libtorrent7torrent12piece_passedENS_3aux14strong_typedefIiNS1_15piece_index_tagEvEE
libtorrent-rasterbar.so.10:_ZN10libtorrent7torrent12set_metadataENS_4spanIKcEE
libtorrent-rasterbar.so.10:_ZN10libtorrent7torrent12set_priorityEi
libtorrent-rasterbar.so.10:_ZN10libtorrent7torrent12set_ssl_certERKNSt7__cxx1112basic_stringIcSt11char_traitsIcESaIcEEES8_S8_S8_
libtorrent-rasterbar.so.10:_ZN10libtorrent7torrent12unchoke_peerERNS_15peer_connectionEb
libtorrent-rasterbar.so.10:_ZN10libtorrent7torrent12update_gaugeEv
libtorrent-rasterbar.so.10:_ZN10libtorrent7torrent12verify_pieceENS_3aux14strong_typedefIiNS1_15piece_index_tagEvEE
libtorrent-rasterbar.so.10:_ZN10libtorrent7torrent13add_extensionESt10shared_ptrINS_14torrent_pluginEE
libtorrent-rasterbar.so.10:_ZN10libtorrent7torrent13file_progressERNS_3aux17container_wrapperIlNS1_14strong_typedefIiNS1_14file_index_tagEvEESt6vectorIlSaIlEEEEi
libtorrent-rasterbar.so.10:_ZN10libtorrent7torrent13files_checkedEv
libtorrent-rasterbar.so.10:_ZN10libtorrent7torrent13force_recheckEv
libtorrent-rasterbar.so.10:_ZN10libtorrent7torrent13get_peer_infoEPSt6vectorINS_9peer_infoESaIS2_EE
libtorrent-rasterbar.so.10:_ZN10libtorrent7torrent13on_piece_syncENS_3aux14strong_typedefIiNS1_15piece_index_tagEvEE
libtorrent-rasterbar.so.10:_ZN10libtorrent7torrent13set_ip_filterESt10shared_ptrIKNS_9ip_filterEE
libtorrent-rasterbar.so.10:_ZN10libtorrent7torrent13state_updatedEv
libtorrent-rasterbar.so.10:_ZN10libtorrent7torrent13use_interfaceENSt7__cxx1112basic_stringIcSt11char_traitsIcESaIcEEE
libtorrent-rasterbar.so.10:_ZN10libtorrent7torrent14disconnect_allERKN5boost6system10error_codeENS_11operation_tE
libtorrent-rasterbar.so.10:_ZN10libtorrent7torrent14need_peer_listEv
libtorrent-rasterbar.so.10:_ZN10libtorrent7torrent14on_i2p_resolveERKN5boost6system10error_codeEPKc
libtorrent-rasterbar.so.10:_ZN10libtorrent7torrent14on_name_lookupERKN5boost6system10error_codeERKSt6vectorINS1_4asio2ip7addressESaIS9_EEiSt14_List_iteratorINS_10web_seed_tEE
libtorrent-rasterbar.so.10:_ZN10libtorrent7torrent14received_bytesEii
libtorrent-rasterbar.so.10:_ZN10libtorrent7torrent14retry_web_seedEPNS_15peer_connectionEN5boost8optionalINSt6chrono8durationIiSt5ratioILl1ELl1EEEEEE
libtorrent-rasterbar.so.10:_ZN10libtorrent7torrent14scrape_trackerEib
libtorrent-rasterbar.so.10:_ZN10libtorrent7torrent14set_limit_implEiib
libtorrent-rasterbar.so.10:_ZN10libtorrent7torrent14set_share_modeEb
libtorrent-rasterbar.so.10:_ZN10libtorrent7torrent14start_checkingEv
libtorrent-rasterbar.so.10:_ZN10libtorrent7torrent15clear_failcountEPNS_12torrent_peerE
libtorrent-rasterbar.so.10:_ZN10libtorrent7torrent15connect_to_peerEPNS_12torrent_peerEb
libtorrent-rasterbar.so.10:_ZN10libtorrent7torrent15leave_seed_modeENS0_11seed_mode_tE
libtorrent-rasterbar.so.10:_ZN10libtorrent7torrent15new_external_ipEv
libtorrent-rasterbar.so.10:_ZN10libtorrent7torrent15on_file_renamedERKNSt7__cxx1112basic_stringIcSt11char_traitsIcESaIcEEENS_3aux14strong_typedefIiNS9_14file_index_tagEvEERKNS_13storage_errorE
libtorrent-rasterbar.so.10:_ZN10libtorrent7torrent15on_piece_hashedENS_3aux14strong_typedefIiNS1_15piece_index_tagEvEERKNS_8digest32ILl160EEERKNS_13storage_errorE
libtorrent-rasterbar.so.10:_ZN10libtorrent7torrent15on_remove_peersEv
libtorrent-rasterbar.so.10:_ZN10libtorrent7torrent15received_synackEb
libtorrent-rasterbar.so.10:_ZN10libtorrent7torrent15remove_web_seedERKNSt7__cxx1112basic_stringIcSt11char_traitsIcESaIcEEENS_14web_seed_entry6type_tE
libtorrent-rasterbar.so.10:_ZN10libtorrent7torrent15resume_downloadEv
libtorrent-rasterbar.so.10:_ZN10libtorrent7torrent15send_share_modeEv
libtorrent-rasterbar.so.10:_ZN10libtorrent7torrent15set_max_uploadsEib
libtorrent-rasterbar.so.10:_ZN10libtorrent7torrent15set_upload_modeEb
libtorrent-rasterbar.so.10:_ZN10libtorrent7torrent15stop_announcingEv
libtorrent-rasterbar.so.10:_ZN10libtorrent7torrent15stop_when_readyEb
libtorrent-rasterbar.so.10:_ZN10libtorrent7torrent15tracker_warningERKNS_15tracker_requestERKNSt7__cxx1112basic_stringIcSt11char_traitsIcESaIcEEE
libtorrent-rasterbar.so.10:_ZN10libtorrent7torrent15trigger_unchokeEv
libtorrent-rasterbar.so.10:_ZN10libtorrent7torrent16add_failed_bytesEi
libtorrent-rasterbar.so.10:_ZN10libtorrent7torrent16add_merkle_nodesERKSt3mapIiNS_8digest32ILl160EEESt4lessIiESaISt4pairIKiS3_EEENS_3aux14strong_typedefIiNSD_15piece_index_tagEvEE
libtorrent-rasterbar.so.10:_ZN10libtorrent7torrent16connect_web_seedESt14_List_iteratorINS_10web_seed_tEEN5boost4asio2ip14basic_endpointINS6_3tcpEEE
libtorrent-rasterbar.so.10:_ZN10libtorrent7torrent16disconnect_peersEiRKN5boost6system10error_codeE
libtorrent-rasterbar.so.10:_ZN10libtorrent7torrent16do_connect_boostEv
libtorrent-rasterbar.so.10:_ZN10libtorrent7torrent16get_torrent_copyEv
libtorrent-rasterbar.so.10:_ZN10libtorrent7torrent16handle_exceptionEv
libtorrent-rasterbar.so.10:_ZN10libtorrent7torrent16log_to_all_peersEPKc
libtorrent-rasterbar.so.10:_ZN10libtorrent7torrent16on_cache_flushedEb
libtorrent-rasterbar.so.10:_ZN10libtorrent7torrent16on_file_priorityERKNS_13storage_errorENS_3aux17container_wrapperINS4_14strong_typedefIhNS_21download_priority_tagEvEENS6_IiNS4_14file_index_tagEvEESt6vectorIS8_SaIS8_EEEE
libtorrent-rasterbar.so.10:_ZN10libtorrent7torrent16on_files_deletedERKNS_13storage_errorE
libtorrent-rasterbar.so.10:_ZN10libtorrent7torrent16on_force_recheckENS_8status_tERKNS_13storage_errorE
libtorrent-rasterbar.so.10:_ZN10libtorrent7torrent16on_storage_movedENS_8status_tERKNSt7__cxx1112basic_stringIcSt11char_traitsIcESaIcEEERKNS_13storage_errorE
libtorrent-rasterbar.so.10:_ZN10libtorrent7torrent16prioritize_filesENS_3aux17container_wrapperINS1_14strong_typedefIhNS_21download_priority_tagEvEENS3_IiNS1_14file_index_tagEvEESt6vectorIS5_SaIS5_EEEE
libtorrent-rasterbar.so.10:_ZN10libtorrent7torrent16remove_extensionESt10shared_ptrINS_14torrent_pluginEE
libtorrent-rasterbar.so.10:_ZN10libtorrent7torrent16replace_trackersERKSt6vectorINS_14announce_entryESaIS2_EE
libtorrent-rasterbar.so.10:_ZN10libtorrent7torrent16save_resume_dataENS_5flags13bitfield_flagIhNS_21resume_data_flags_tagEvEE
libtorrent-rasterbar.so.10:_ZN10libtorrent7torrent16send_upload_onlyEv
libtorrent-rasterbar.so.10:_ZN10libtorrent7torrent16set_upload_limitEi
libtorrent-rasterbar.so.10:_ZN10libtorrent7torrent16setup_peer_classEv
libtorrent-rasterbar.so.10:_ZN10libtorrent7torrent16start_announcingEv
libtorrent-rasterbar.so.10:_ZN10libtorrent7torrent16tracker_responseERKNS_15tracker_requestERKN5boost4asio2ip7addressERKNSt7__cxx114listIS7_SaIS7_EEERKNS_16tracker_responseE
libtorrent-rasterbar.so.10:_ZN10libtorrent7torrent16try_connect_peerEv
libtorrent-rasterbar.so.10:_ZN10libtorrent7torrent16update_peer_portEiPNS_12torrent_peerENS_5flags13bitfield_flagIhNS_21peer_source_flags_tagEvEE
libtorrent-rasterbar.so.10:_ZN10libtorrent7torrent16update_want_tickEv
libtorrent-rasterbar.so.10:_ZN10libtorrent7torrent16verify_peer_certEbRN5boost4asio3ssl14verify_contextE
libtorrent-rasterbar.so.10:_ZN10libtorrent7torrent17add_extension_funERKSt8functionIFSt10shared_ptrINS_14torrent_pluginEERKNS_14torrent_handleEPvEES8_
libtorrent-rasterbar.so.10:_ZN10libtorrent7torrent17add_suggest_pieceENS_3aux14strong_typedefIiNS1_15piece_index_tagEvEE
libtorrent-rasterbar.so.10:_ZN10libtorrent7torrent17construct_storageEv
libtorrent-rasterbar.so.10:_ZN10libtorrent7torrent17handle_disk_errorEN5boost17basic_string_viewIcSt11char_traitsIcEEERKNS_13storage_errorEPNS_15peer_connectionENS0_10disk_classE
libtorrent-rasterbar.so.10:_ZN10libtorrent7torrent17inc_stats_counterEii
libtorrent-rasterbar.so.10:_ZN10libtorrent7torrent17ip_filter_updatedEv
libtorrent-rasterbar.so.10:_ZN10libtorrent7torrent17on_piece_verifiedENS_3aux14strong_typedefIiNS1_15piece_index_tagEvEERKNS_8digest32ILl160EEERKNS_13storage_errorE
libtorrent-rasterbar.so.10:_ZN10libtorrent7torrent17on_torrent_pausedEv
libtorrent-rasterbar.so.10:_ZN10libtorrent7torrent17prioritize_piecesERKNS_3aux17container_wrapperINS1_14strong_typedefIhNS_21download_priority_tagEvEENS3_IiNS1_15piece_index_tagEvEESt6vectorIS5_SaIS5_EEEE
libtorrent-rasterbar.so.10:_ZN10libtorrent7torrent17recalc_share_modeEv
libtorrent-rasterbar.so.10:_ZN10libtorrent7torrent17remove_connectionEPKNS_15peer_connectionE
libtorrent-rasterbar.so.10:_ZN10libtorrent7torrent17set_file_priorityENS_3aux14strong_typedefIiNS1_14file_index_tagEvEENS2_IhNS_21download_priority_tagEvEE
libtorrent-rasterbar.so.10:_ZN10libtorrent7torrent17set_super_seedingEb
libtorrent-rasterbar.so.10:_ZN10libtorrent7torrent17set_tracker_loginERKNSt7__cxx1112basic_stringIcSt11char_traitsIcESaIcEEES8_
libtorrent-rasterbar.so.10:_ZN10libtorrent7torrent17step_session_timeEi
libtorrent-rasterbar.so.10:_ZN10libtorrent7torrent17update_state_listEv
libtorrent-rasterbar.so.10:_ZN10libtorrent7torrent17update_want_peersEv
libtorrent-rasterbar.so.10:_ZN10libtorrent7torrent18on_inactivity_tickERKN5boost6system10error_codeE
libtorrent-rasterbar.so.10:_ZN10libtorrent7torrent18on_piece_fail_syncENS_3aux14strong_typedefIiNS1_15piece_index_tagEvEENS_11piece_blockE
libtorrent-rasterbar.so.10:_ZN10libtorrent7torrent18on_torrent_abortedEv
libtorrent-rasterbar.so.10:_ZN10libtorrent7torrent18set_download_limitEi
libtorrent-rasterbar.so.10:_ZN10libtorrent7torrent18set_piece_deadlineENS_3aux14strong_typedefIiNS1_15piece_index_tagEvEEiNS_5flags13bitfield_flagIhNS_18deadline_flags_tagEvEE
libtorrent-rasterbar.so.10:_ZN10libtorrent7torrent18set_piece_priorityENS_3aux14strong_typedefIiNS1_15piece_index_tagEvEENS2_IhNS_21download_priority_tagEvEE
libtorrent-rasterbar.so.10:_ZN10libtorrent7torrent18set_queue_positionENS_3aux14strong_typedefIiNS_18queue_position_tagEvEE
libtorrent-rasterbar.so.10:_ZN10libtorrent7torrent18set_session_pausedEb
libtorrent-rasterbar.so.10:_ZN10libtorrent7torrent18start_download_urlEv
libtorrent-rasterbar.so.10:_ZN10libtorrent7torrent18update_want_scrapeEv
libtorrent-rasterbar.so.10:_ZN10libtorrent7torrent19add_redundant_bytesEiNS_12waste_reasonE
libtorrent-rasterbar.so.10:_ZN10libtorrent7torrent19cancel_non_criticalEv
libtorrent-rasterbar.so.10:_ZN10libtorrent7torrent19clear_time_criticalEv
libtorrent-rasterbar.so.10:_ZN10libtorrent7torrent19connect_to_url_seedESt14_List_iteratorINS_10web_seed_tEE
libtorrent-rasterbar.so.10:_ZN10libtorrent7torrent19disconnect_web_seedEPNS_15peer_connectionE
libtorrent-rasterbar.so.10:_ZN10libtorrent7torrent19enable_all_trackersEv
libtorrent-rasterbar.so.10:_ZN10libtorrent7torrent19file_progress_floatERNS_3aux17container_wrapperIfNS1_14strong_typedefIiNS1_14file_index_tagEvEESt6vectorIfSaIfEEEE
libtorrent-rasterbar.so.10:_ZN10libtorrent7torrent19get_peer_list_stateEv
libtorrent-rasterbar.so.10:_ZN10libtorrent7torrent19maybe_done_flushingEv
libtorrent-rasterbar.so.10:_ZN10libtorrent7torrent19on_peer_name_lookupERKN5boost6system10error_codeERKSt6vectorINS1_4asio2ip7addressESaIS9_EEi
libtorrent-rasterbar.so.10:_ZN10libtorrent7torrent19on_torrent_downloadERKN5boost6system10error_codeERKNS_11http_parserENS_4spanIKcEE
libtorrent-rasterbar.so.10:_ZN10libtorrent7torrent19on_tracker_announceERKN5boost6system10error_codeE
libtorrent-rasterbar.so.10:_ZN10libtorrent7torrent19peer_is_interestingERNS_15peer_connectionE
libtorrent-rasterbar.so.10:_ZN10libtorrent7torrent19port_filter_updatedEv
libtorrent-rasterbar.so.10:_ZN10libtorrent7torrent19set_apply_ip_filterEb
libtorrent-rasterbar.so.10:_ZN10libtorrent7torrent19set_max_connectionsEib
libtorrent-rasterbar.so.10:_ZN10libtorrent7torrent19set_ssl_cert_bufferERKNSt7__cxx1112basic_stringIcSt11char_traitsIcESaIcEEES8_S8_
libtorrent-rasterbar.so.10:_ZN10libtorrent7torrent19trancieve_ip_packetEib
libtorrent-rasterbar.so.10:_ZN10libtorrent7torrent19update_scrape_stateEv
libtorrent-rasterbar.so.10:_ZN10libtorrent7torrent20deprioritize_trackerEi
libtorrent-rasterbar.so.10:_ZN10libtorrent7torrent20on_proxy_name_lookupERKN5boost6system10error_codeERKSt6vectorINS1_4asio2ip7addressESaIS9_EESt14_List_iteratorINS_10web_seed_tEEi
libtorrent-rasterbar.so.10:_ZN10libtorrent7torrent20predicted_have_pieceENS_3aux14strong_typedefIiNS1_15piece_index_tagEvEEi
libtorrent-rasterbar.so.10:_ZN10libtorrent7torrent20remove_web_seed_connEPNS_15peer_connectionERKN5boost6system10error_codeENS_11operation_tENS_3aux14strong_typedefIhNS_23disconnect_severity_tagEvEE
libtorrent-rasterbar.so.10:_ZN10libtorrent7torrent20remove_web_seed_iterESt14_List_iteratorINS_10web_seed_tEE
libtorrent-rasterbar.so.10:_ZN10libtorrent7torrent20reset_piece_deadlineENS_3aux14strong_typedefIiNS1_15piece_index_tagEvEE
libtorrent-rasterbar.so.10:_ZN10libtorrent7torrent20update_peer_interestEb
libtorrent-rasterbar.so.10:_ZN10libtorrent7torrent20update_tracker_timerENSt6chrono10time_pointINS1_3_V212system_clockENS1_8durationIiSt5ratioILl1ELl1EEEEEE
libtorrent-rasterbar.so.10:_ZN10libtorrent7torrent21announce_with_trackerEh
libtorrent-rasterbar.so.10:_ZN10libtorrent7torrent21force_tracker_requestENSt6chrono10time_pointINS1_3_V212system_clockENS1_8durationIlSt5ratioILl1ELl1000000000EEEEEEiNS_5flags13bitfield_flagIhNS_20reannounce_flags_tagEvEE
libtorrent-rasterbar.so.10:_ZN10libtorrent7torrent21on_disk_read_completeENS_18disk_buffer_holderENS_5flags13bitfield_flagIhNS_18disk_job_flags_tagEvEERKNS_13storage_errorERKNS_12peer_requestESt10shared_ptrINS0_17read_piece_structEE
libtorrent-rasterbar.so.10:_ZN10libtorrent7torrent21prioritize_piece_listERKSt6vectorISt4pairINS_3aux14strong_typedefIiNS3_15piece_index_tagEvEENS4_IhNS_21download_priority_tagEvEEESaIS9_EE
libtorrent-rasterbar.so.10:_ZN10libtorrent7torrent21tracker_request_errorERKNS_15tracker_requestERKN5boost6system10error_codeERKNSt7__cxx1112basic_stringIcSt11char_traitsIcESaIcEEENSt6chrono8durationIiSt5ratioILl1ELl1EEEE
libtorrent-rasterbar.so.10:_ZN10libtorrent7torrent22on_disk_write_completeERKNS_13storage_errorERKNS_12peer_requestE
libtorrent-rasterbar.so.10:_ZN10libtorrent7torrent22on_resume_data_checkedENS_8status_tERKNS_13storage_errorE
libtorrent-rasterbar.so.10:_ZN10libtorrent7torrent22update_auto_sequentialEv
libtorrent-rasterbar.so.10:_ZN10libtorrent7torrent23get_piece_to_super_seedERKNS_14typed_bitfieldINS_3aux14strong_typedefIiNS2_15piece_index_tagEvEEEE
libtorrent-rasterbar.so.10:_ZN10libtorrent7torrent23maybe_connect_web_seedsEv
libtorrent-rasterbar.so.10:_ZN10libtorrent7torrent23prioritize_udp_trackersEv
libtorrent-rasterbar.so.10:_ZN10libtorrent7torrent23set_sequential_downloadEb
libtorrent-rasterbar.so.10:_ZN10libtorrent7torrent23tracker_scrape_responseERKNS_15tracker_requestEiiii
libtorrent-rasterbar.so.10:_ZN10libtorrent7torrent23update_piece_prioritiesERKNS_3aux17container_wrapperINS1_14strong_typedefIhNS_21download_priority_tagEvEENS3_IiNS1_14file_index_tagEvEESt6vectorIS5_SaIS5_EEEE
libtorrent-rasterbar.so.10:_ZN10libtorrent7torrent24on_dht_announce_responseERKSt6vectorIN5boost4asio2ip14basic_endpointINS4_3tcpEEESaIS7_EE
libtorrent-rasterbar.so.10:_ZN10libtorrent7torrent25notify_extension_add_peerERKN5boost4asio2ip14basic_endpointINS3_3tcpEEENS_5flags13bitfield_flagIhNS_21peer_source_flags_tagEvEENSA_IhNS_18add_peer_flags_tagEvEE
libtorrent-rasterbar.so.10:_ZN10libtorrent7torrent26remove_time_critical_pieceENS_3aux14strong_typedefIiNS1_15piece_index_tagEvEEb
libtorrent-rasterbar.so.10:_ZN10libtorrent7torrent26trigger_optimistic_unchokeEv
libtorrent-rasterbar.so.10:_ZN10libtorrent7torrent27remove_time_critical_piecesERKNS_3aux17container_wrapperINS1_14strong_typedefIhNS_21download_priority_tagEvEENS3_IiNS1_15piece_index_tagEvEESt6vectorIS5_SaIS5_EEEE
libtorrent-rasterbar.so.10:_ZN10libtorrent7torrent28request_time_critical_piecesEv
libtorrent-rasterbar.so.10:_ZN10libtorrent7torrent29on_dht_announce_response_dispESt8weak_ptrIS0_ERKSt6vectorIN5boost4asio2ip14basic_endpointINS6_3tcpEEESaIS9_EE
libtorrent-rasterbar.so.10:_ZN10libtorrent7torrent4initEv
libtorrent-rasterbar.so.10:_ZN10libtorrent7torrent5abortEv
libtorrent-rasterbar.so.10:_ZN10libtorrent7torrent5panicEv
libtorrent-rasterbar.so.10:_ZN10libtorrent7torrent5pauseENS_5flags13bitfield_flagIhNS_15pause_flags_tagEvEE
libtorrent-rasterbar.so.10:_ZN10libtorrent7torrent5startEv
libtorrent-rasterbar.so.10:_ZN10libtorrent7torrent6resumeEv
libtorrent-rasterbar.so.10:_ZN10libtorrent7torrent6statusEPNS_14torrent_statusENS_5flags13bitfield_flagIjNS_16status_flags_tagEvEE
libtorrent-rasterbar.so.10:_ZN10libtorrent7torrent7we_haveENS_3aux14strong_typedefIiNS1_15piece_index_tagEvEE
libtorrent-rasterbar.so.10:_ZN10libtorrent7torrent8add_peerERKN5boost4asio2ip14basic_endpointINS3_3tcpEEENS_5flags13bitfield_flagIhNS_21peer_source_flags_tagEvEENSA_IhNS_13pex_flags_tagEvEE
libtorrent-rasterbar.so.10:_ZN10libtorrent7torrent8ban_peerEPNS_12torrent_peerE
libtorrent-rasterbar.so.10:_ZN10libtorrent7torrent8do_pauseENS_5flags13bitfield_flagIhNS_15pause_flags_tagEvEE
libtorrent-rasterbar.so.10:_ZN10libtorrent7torrent8finishedEv
libtorrent-rasterbar.so.10:_ZN10libtorrent7torrent8init_sslEN5boost17basic_string_viewIcSt11char_traitsIcEEE
libtorrent-rasterbar.so.10:_ZN10libtorrent7torrent8on_errorERKN5boost6system10error_codeE
libtorrent-rasterbar.so.10:_ZN10libtorrent7torrent8peer_hasENS_3aux14strong_typedefIiNS1_15piece_index_tagEvEEPKNS_15peer_connectionE
libtorrent-rasterbar.so.10:_ZN10libtorrent7torrent8peer_hasERKNS_14typed_bitfieldINS_3aux14strong_typedefIiNS2_15piece_index_tagEvEEEEPKNS_15peer_connectionE
libtorrent-rasterbar.so.10:_ZN10libtorrent7torrent8queue_upEv
libtorrent-rasterbar.so.10:_ZN10libtorrent7torrent8sent_synEb
libtorrent-rasterbar.so.10:_ZN10libtorrent7torrent8set_seedEPNS_12torrent_peerEb
libtorrent-rasterbar.so.10:_ZN10libtorrent7torrent8verifiedENS_3aux14strong_typedefIiNS1_15piece_index_tagEvEE
libtorrent-rasterbar.so.10:_ZN10libtorrent7torrent9add_pieceENS_3aux14strong_typedefIiNS1_15piece_index_tagEvEEPKcNS_5flags13bitfield_flagIhNS_19add_piece_flags_tagEvEE
libtorrent-rasterbar.so.10:_ZN10libtorrent7torrent9completedEv
libtorrent-rasterbar.so.10:_ZN10libtorrent7torrent9do_resumeEv
libtorrent-rasterbar.so.10:_ZN10libtorrent7torrent9find_peerERKNS_8digest32ILl160EEE
libtorrent-rasterbar.so.10:_ZN10libtorrent7torrent9peer_lostENS_3aux14strong_typedefIiNS1_15piece_index_tagEvEEPKNS_15peer_connectionE
libtorrent-rasterbar.so.10:_ZN10libtorrent7torrent9peer_lostERKNS_14typed_bitfieldINS_3aux14strong_typedefIiNS2_15piece_index_tagEvEEEEPKNS_15peer_connectionE
libtorrent-rasterbar.so.10:_ZN10libtorrent7torrent9set_errorERKN5boost6system10error_codeENS_3aux14strong_typedefIiNS6_14file_index_tagEvEE
libtorrent-rasterbar.so.10:_ZN10libtorrent7torrent9set_flagsENS_5flags13bitfield_flagImNS_17torrent_flags_tagEvEES4_
libtorrent-rasterbar.so.10:_ZN10libtorrent7torrent9set_stateENS_14torrent_status7state_tE
libtorrent-rasterbar.so.10:_ZN10libtorrent7torrentC1ERNS_3aux17session_interfaceEbRKNS_18add_torrent_paramsE
libtorrent-rasterbar.so.10:_ZN10libtorrent7torrentC2ERNS_3aux17session_interfaceEbRKNS_18add_torrent_paramsE
libtorrent-rasterbar.so.10:_ZN10libtorrent7torrentD0Ev
libtorrent-rasterbar.so.10:_ZN10libtorrent7torrentD1Ev
libtorrent-rasterbar.so.10:_ZN10libtorrent7torrentD2Ev
libtorrent-rasterbar.so.10:_ZN10libtorrent7versionEv
libtorrent-rasterbar.so.10:_ZN10libtorrent8bitfield6resizeEi
libtorrent-rasterbar.so.10:_ZN10libtorrent8bitfield6resizeEib
libtorrent-rasterbar.so.10:_ZN10libtorrent8completeB5cxx11EN5boost17basic_string_viewIcSt11char_traitsIcEEE
libtorrent-rasterbar.so.10:_ZN10libtorrent8counters17inc_stats_counterEil
libtorrent-rasterbar.so.10:_ZN10libtorrent8counters19blend_stats_counterEili
libtorrent-rasterbar.so.10:_ZN10libtorrent8counters9set_valueEil
libtorrent-rasterbar.so.10:_ZN10libtorrent8countersC1ERKS0_
libtorrent-rasterbar.so.10:_ZN10libtorrent8countersC1Ev
libtorrent-rasterbar.so.10:_ZN10libtorrent8countersC2ERKS0_
libtorrent-rasterbar.so.10:_ZN10libtorrent8countersC2Ev
libtorrent-rasterbar.so.10:_ZN10libtorrent8countersaSERKS0_
libtorrent-rasterbar.so.10:_ZN10libtorrent8filenameERKNSt7__cxx1112basic_stringIcSt11char_traitsIcESaIcEEE
libtorrent-rasterbar.so.10:_ZN10libtorrent8has_bitsEPKhS1_i
libtorrent-rasterbar.so.10:_ZN10libtorrent8i2p_peerC1EN5boost17basic_string_viewIcSt11char_traitsIcEEEbNS_5flags13bitfield_flagIhNS_21peer_source_flags_tagEvEE
libtorrent-rasterbar.so.10:_ZN10libtorrent8i2p_peerC2EN5boost17basic_string_viewIcSt11char_traitsIcEEEbNS_5flags13bitfield_flagIhNS_21peer_source_flags_tagEvEE
libtorrent-rasterbar.so.10:_ZN10libtorrent8ip_voter12maybe_rotateEv
libtorrent-rasterbar.so.10:_ZN10libtorrent8ip_voter13external_ip_t8add_voteERKNS_8digest32ILl160EEENS_5flags13bitfield_flagIhNS_3aux13ip_source_tagEvEE
libtorrent-rasterbar.so.10:_ZN10libtorrent8ip_voter9cast_voteERKN5boost4asio2ip7addressENS_5flags13bitfield_flagIhNS_3aux13ip_source_tagEvEES6_
libtorrent-rasterbar.so.10:_ZN10libtorrent8ip_voterC1Ev
libtorrent-rasterbar.so.10:_ZN10libtorrent8ip_voterC2Ev
libtorrent-rasterbar.so.10:_ZN10libtorrent8is_alphaEc
libtorrent-rasterbar.so.10:_ZN10libtorrent8is_localERKN5boost4asio2ip7addressE
libtorrent-rasterbar.so.10:_ZN10libtorrent8is_printEc
libtorrent-rasterbar.so.10:_ZN10libtorrent8is_spaceEc
libtorrent-rasterbar.so.10:_ZN10libtorrent8resolver13async_resolveERKNSt7__cxx1112basic_stringIcSt11char_traitsIcESaIcEEENS_5flags13bitfield_flagIhNS_17resolver_flag_tagEvEESt8functionIFvRKN5boost6system10error_codeERKSt6vectorINSE_4asio2ip7addressESaISM_EEEE
libtorrent-rasterbar.so.10:_ZN10libtorrent8resolver17set_cache_timeoutENSt6chrono8durationIlSt5ratioILl1ELl1EEEE
libtorrent-rasterbar.so.10:_ZN10libtorrent8resolver5abortEv
libtorrent-rasterbar.so.10:_ZN10libtorrent8resolver8callbackESt8functionIFvRKN5boost6system10error_codeERKSt6vectorINS2_4asio2ip7addressESaISA_EEEES6_SE_
libtorrent-rasterbar.so.10:_ZN10libtorrent8resolver9on_lookupERKN5boost6system10error_codeENS1_4asio2ip23basic_resolver_iteratorINS7_3tcpEEERKNSt7__cxx1112basic_stringIcSt11char_traitsIcESaIcEEE
libtorrent-rasterbar.so.10:_ZN10libtorrent8resolverC1ERN5boost4asio10io_contextE
libtorrent-rasterbar.so.10:_ZN10libtorrent8resolverC2ERN5boost4asio10io_contextE
libtorrent-rasterbar.so.10:_ZN10libtorrent8set_bitsEPKhPhi
libtorrent-rasterbar.so.10:_ZN10libtorrent8to_lowerEc
libtorrent-rasterbar.so.10:_ZN10libtorrent9add_filesERNS_12file_storageERKNSt7__cxx1112basic_stringIcSt11char_traitsIcESaIcEEENS_5flags13bitfield_flagIjNS_16create_flags_tagEvEE
libtorrent-rasterbar.so.10:_ZN10libtorrent9add_filesERNS_12file_storageERKNSt7__cxx1112basic_stringIcSt11char_traitsIcESaIcEEESt8functionIFbS7_EENS_5flags13bitfield_flagIjNS_16create_flags_tagEvEE
libtorrent-rasterbar.so.10:_ZN10libtorrent9bufs_sizeENS_4spanIKNS0_IcEEEE
libtorrent-rasterbar.so.10:_ZN10libtorrent9copy_fileERKNSt7__cxx1112basic_stringIcSt11char_traitsIcESaIcEEES7_RN5boost6system10error_codeE
libtorrent-rasterbar.so.10:_ZN10libtorrent9crc32c_32Ej
libtorrent-rasterbar.so.10:_ZN10libtorrent9directory4nextERN5boost6system10error_codeE
libtorrent-rasterbar.so.10:_ZN10libtorrent9directoryC1ERKNSt7__cxx1112basic_stringIcSt11char_traitsIcESaIcEEERN5boost6system10error_codeE
libtorrent-rasterbar.so.10:_ZN10libtorrent9directoryC2ERKNSt7__cxx1112basic_stringIcSt11char_traitsIcESaIcEEERN5boost6system10error_codeE
libtorrent-rasterbar.so.10:_ZN10libtorrent9directoryD1Ev
libtorrent-rasterbar.so.10:_ZN10libtorrent9directoryD2Ev
libtorrent-rasterbar.so.10:_ZN10libtorrent9extensionERKNSt7__cxx1112basic_stringIcSt11char_traitsIcESaIcEEE
libtorrent-rasterbar.so.10:_ZN10libtorrent9file_pool12close_oldestEv
libtorrent-rasterbar.so.10:_ZN10libtorrent9file_pool13remove_oldestERSt11unique_lockISt5mutexE
libtorrent-rasterbar.so.10:_ZN10libtorrent9file_pool6resizeEi
libtorrent-rasterbar.so.10:_ZN10libtorrent9file_pool7releaseENS_3aux14strong_typedefIjNS_19storage_index_tag_tEvEE
libtorrent-rasterbar.so.10:_ZN10libtorrent9file_pool7releaseENS_3aux14strong_typedefIjNS_19storage_index_tag_tEvEENS2_IiNS1_14file_index_tagEvEE
libtorrent-rasterbar.so.10:_ZN10libtorrent9file_pool7releaseEv
libtorrent-rasterbar.so.10:_ZN10libtorrent9file_pool9open_fileENS_3aux14strong_typedefIjNS_19storage_index_tag_tEvEERKNSt7__cxx1112basic_stringIcSt11char_traitsIcESaIcEEENS2_IiNS1_14file_index_tagEvEERKNS_12file_storageENS_5flags13bitfield_flagIjNS_13open_mode_tagEvEERN5boost6system10error_codeE
libtorrent-rasterbar.so.10:_ZN10libtorrent9file_poolC1Ei
libtorrent-rasterbar.so.10:_ZN10libtorrent9file_poolC2Ei
libtorrent-rasterbar.so.10:_ZN10libtorrent9file_poolD1Ev
libtorrent-rasterbar.so.10:_ZN10libtorrent9file_poolD2Ev
libtorrent-rasterbar.so.10:_ZN10libtorrent9file_sizeERKNSt7__cxx1112basic_stringIcSt11char_traitsIcESaIcEEE
libtorrent-rasterbar.so.10:_ZN10libtorrent9hard_linkERKNSt7__cxx1112basic_stringIcSt11char_traitsIcESaIcEEES7_RN5boost6system10error_codeE
libtorrent-rasterbar.so.10:_ZN10libtorrent9hasher5125finalEv
libtorrent-rasterbar.so.10:_ZN10libtorrent9hasher5125resetEv
libtorrent-rasterbar.so.10:_ZN10libtorrent9hasher5126updateENS_4spanIKcEE
libtorrent-rasterbar.so.10:_ZN10libtorrent9hasher512C1ENS_4spanIKcEE
libtorrent-rasterbar.so.10:_ZN10libtorrent9hasher512C1ERKS0_
libtorrent-rasterbar.so.10:_ZN10libtorrent9hasher512C1Ev
libtorrent-rasterbar.so.10:_ZN10libtorrent9hasher512C2ENS_4spanIKcEE
libtorrent-rasterbar.so.10:_ZN10libtorrent9hasher512C2ERKS0_
libtorrent-rasterbar.so.10:_ZN10libtorrent9hasher512C2Ev
libtorrent-rasterbar.so.10:_ZN10libtorrent9hasher512D1Ev
libtorrent-rasterbar.so.10:_ZN10libtorrent9hasher512D2Ev
libtorrent-rasterbar.so.10:_ZN10libtorrent9i2p_alertC1ERNS_3aux15stack_allocatorERKN5boost6system10error_codeE
libtorrent-rasterbar.so.10:_ZN10libtorrent9i2p_alertC2ERNS_3aux15stack_allocatorERKN5boost6system10error_codeE
libtorrent-rasterbar.so.10:_ZN10libtorrent9i2p_error15make_error_codeENS0_14i2p_error_codeE
libtorrent-rasterbar.so.10:_ZN10libtorrent9ip_filter8add_ruleERKN5boost4asio2ip7addressES6_j
libtorrent-rasterbar.so.10:_ZN10libtorrent9ipv4_peerC1ERKN5boost4asio2ip14basic_endpointINS3_3tcpEEEbNS_5flags13bitfield_flagIhNS_21peer_source_flags_tagEvEE
libtorrent-rasterbar.so.10:_ZN10libtorrent9ipv4_peerC1ERKS0_
libtorrent-rasterbar.so.10:_ZN10libtorrent9ipv4_peerC2ERKN5boost4asio2ip14basic_endpointINS3_3tcpEEEbNS_5flags13bitfield_flagIhNS_21peer_source_flags_tagEvEE
libtorrent-rasterbar.so.10:_ZN10libtorrent9ipv4_peerC2ERKS0_
libtorrent-rasterbar.so.10:_ZN10libtorrent9ipv4_peeraSERKS0_
libtorrent-rasterbar.so.10:_ZN10libtorrent9ipv6_peerC1ERKN5boost4asio2ip14basic_endpointINS3_3tcpEEEbNS_5flags13bitfield_flagIhNS_21peer_source_flags_tagEvEE
libtorrent-rasterbar.so.10:_ZN10libtorrent9ipv6_peerC1ERKS0_
libtorrent-rasterbar.so.10:_ZN10libtorrent9ipv6_peerC2ERKN5boost4asio2ip14basic_endpointINS3_3tcpEEEbNS_5flags13bitfield_flagIhNS_21peer_source_flags_tagEvEE
libtorrent-rasterbar.so.10:_ZN10libtorrent9ipv6_peerC2ERKS0_
libtorrent-rasterbar.so.10:_ZN10libtorrent9is_globalERKN5boost4asio2ip7addressE
libtorrent-rasterbar.so.10:_ZN10libtorrent9is_teredoERKN5boost4asio2ip7addressE
libtorrent-rasterbar.so.10:_ZN10libtorrent9log_alertC1ERNS_3aux15stack_allocatorEPKc
libtorrent-rasterbar.so.10:_ZN10libtorrent9log_alertC1ERNS_3aux15stack_allocatorEPKcP13__va_list_tag
libtorrent-rasterbar.so.10:_ZN10libtorrent9log_alertC2ERNS_3aux15stack_allocatorEPKc
libtorrent-rasterbar.so.10:_ZN10libtorrent9log_alertC2ERNS_3aux15stack_allocatorEPKcP13__va_list_tag
libtorrent-rasterbar.so.10:_ZN10libtorrent9move_fileERKNSt7__cxx1112basic_stringIcSt11char_traitsIcESaIcEEES7_RN5boost6system10error_codeE
libtorrent-rasterbar.so.10:_ZN10libtorrent9parse_intEPKcS1_cRlRNS_14bdecode_errors15error_code_enumE
libtorrent-rasterbar.so.10:_ZN10libtorrent9part_file10free_pieceENS_3aux14strong_typedefIiNS1_15piece_index_tagEvEE
libtorrent-rasterbar.so.10:_ZN10libtorrent9part_file11export_fileESt8functionIFvlNS_4spanIcEEEEllRN5boost6system10error_codeE
libtorrent-rasterbar.so.10:_ZN10libtorrent9part_file13allocate_slotENS_3aux14strong_typedefIiNS1_15piece_index_tagEvEE
libtorrent-rasterbar.so.10:_ZN10libtorrent9part_file13move_partfileERKNSt7__cxx1112basic_stringIcSt11char_traitsIcESaIcEEERN5boost6system10error_codeE
libtorrent-rasterbar.so.10:_ZN10libtorrent9part_file14flush_metadataERN5boost6system10error_codeE
libtorrent-rasterbar.so.10:_ZN10libtorrent9part_file19flush_metadata_implERN5boost6system10error_codeE
libtorrent-rasterbar.so.10:_ZN10libtorrent9part_file5readvENS_4spanIKNS1_IcEEEENS_3aux14strong_typedefIiNS5_15piece_index_tagEvEEiRN5boost6system10error_codeE
libtorrent-rasterbar.so.10:_ZN10libtorrent9part_file6writevENS_4spanIKNS1_IcEEEENS_3aux14strong_typedefIiNS5_15piece_index_tagEvEEiRN5boost6system10error_codeE
libtorrent-rasterbar.so.10:_ZN10libtorrent9part_file9open_fileENS_5flags13bitfield_flagIjNS_13open_mode_tagEvEERN5boost6system10error_codeE
libtorrent-rasterbar.so.10:_ZN10libtorrent9part_fileC1ERKNSt7__cxx1112basic_stringIcSt11char_traitsIcESaIcEEES8_ii
libtorrent-rasterbar.so.10:_ZN10libtorrent9part_fileC2ERKNSt7__cxx1112basic_stringIcSt11char_traitsIcESaIcEEES8_ii
libtorrent-rasterbar.so.10:_ZN10libtorrent9part_fileD1Ev
libtorrent-rasterbar.so.10:_ZN10libtorrent9part_fileD2Ev
libtorrent-rasterbar.so.10:_ZN10libtorrent9peer_infoC1EOS0_
libtorrent-rasterbar.so.10:_ZN10libtorrent9peer_infoC1ERKS0_
libtorrent-rasterbar.so.10:_ZN10libtorrent9peer_infoC1Ev
libtorrent-rasterbar.so.10:_ZN10libtorrent9peer_infoC2EOS0_
libtorrent-rasterbar.so.10:_ZN10libtorrent9peer_infoC2ERKS0_
libtorrent-rasterbar.so.10:_ZN10libtorrent9peer_infoC2Ev
libtorrent-rasterbar.so.10:_ZN10libtorrent9peer_infoD1Ev
libtorrent-rasterbar.so.10:_ZN10libtorrent9peer_infoD2Ev
libtorrent-rasterbar.so.10:_ZN10libtorrent9peer_infoaSERKS0_
libtorrent-rasterbar.so.10:_ZN10libtorrent9peer_list10erase_peerEPNS_12torrent_peerEPNS_13torrent_stateE
libtorrent-rasterbar.so.10:_ZN10libtorrent9peer_list10erase_peerESt15_Deque_iteratorIPNS_12torrent_peerERS3_PS3_EPNS_13torrent_stateE
libtorrent-rasterbar.so.10:_ZN10libtorrent9peer_list11erase_peersEPNS_13torrent_stateENS_5flags13bitfield_flagIhNS_20erase_peer_flags_tagEvEE
libtorrent-rasterbar.so.10:_ZN10libtorrent9peer_list11insert_peerEPNS_12torrent_peerESt15_Deque_iteratorIS2_RS2_PS2_ENS_5flags13bitfield_flagIhNS_13pex_flags_tagEvEEPNS_13torrent_stateE
libtorrent-rasterbar.so.10:_ZN10libtorrent9peer_list11update_peerEPNS_12torrent_peerENS_5flags13bitfield_flagIhNS_21peer_source_flags_tagEvEENS4_IhNS_13pex_flags_tagEvEERKN5boost4asio2ip14basic_endpointINSB_3tcpEEE
libtorrent-rasterbar.so.10:_ZN10libtorrent9peer_list12add_i2p_peerEN5boost17basic_string_viewIcSt11char_traitsIcEEENS_5flags13bitfield_flagIhNS_21peer_source_flags_tagEvEENS7_IhNS_13pex_flags_tagEvEEPNS_13torrent_stateE
libtorrent-rasterbar.so.10:_ZN10libtorrent9peer_list13inc_failcountEPNS_12torrent_peerE
libtorrent-rasterbar.so.10:_ZN10libtorrent9peer_list13set_failcountEPNS_12torrent_peerEi
libtorrent-rasterbar.so.10:_ZN10libtorrent9peer_list14new_connectionERNS_25peer_connection_interfaceEiPNS_13torrent_stateE
libtorrent-rasterbar.so.10:_ZN10libtorrent9peer_list14set_connectionEPNS_12torrent_peerEPNS_25peer_connection_interfaceE
libtorrent-rasterbar.so.10:_ZN10libtorrent9peer_list15apply_ip_filterERKNS_9ip_filterEPNS_13torrent_stateERSt6vectorIN5boost4asio2ip7addressESaISA_EE
libtorrent-rasterbar.so.10:_ZN10libtorrent9peer_list15clear_peer_prioEv
libtorrent-rasterbar.so.10:_ZN10libtorrent9peer_list16connect_one_peerEiPNS_13torrent_stateE
libtorrent-rasterbar.so.10:_ZN10libtorrent9peer_list16update_peer_portEiPNS_12torrent_peerENS_5flags13bitfield_flagIhNS_21peer_source_flags_tagEvEEPNS_13torrent_stateE
libtorrent-rasterbar.so.10:_ZN10libtorrent9peer_list17apply_port_filterERKNS_11port_filterEPNS_13torrent_stateERSt6vectorIN5boost4asio2ip7addressESaISA_EE
libtorrent-rasterbar.so.10:_ZN10libtorrent9peer_list17connection_closedERKNS_25peer_connection_interfaceEiPNS_13torrent_stateE
libtorrent-rasterbar.so.10:_ZN10libtorrent9peer_list17set_max_failcountEPNS_13torrent_stateE
libtorrent-rasterbar.so.10:_ZN10libtorrent9peer_list23find_connect_candidatesERSt6vectorIPNS_12torrent_peerESaIS3_EEiPNS_13torrent_stateE
libtorrent-rasterbar.so.10:_ZN10libtorrent9peer_list25update_connect_candidatesEi
libtorrent-rasterbar.so.10:_ZN10libtorrent9peer_list30recalculate_connect_candidatesEPNS_13torrent_stateE
libtorrent-rasterbar.so.10:_ZN10libtorrent9peer_list5clearEv
libtorrent-rasterbar.so.10:_ZN10libtorrent9peer_list8add_peerERKN5boost4asio2ip14basic_endpointINS3_3tcpEEENS_5flags13bitfield_flagIhNS_21peer_source_flags_tagEvEENSA_IhNS_13pex_flags_tagEvEEPNS_13torrent_stateE
libtorrent-rasterbar.so.10:_ZN10libtorrent9peer_list8ban_peerEPNS_12torrent_peerE
libtorrent-rasterbar.so.10:_ZN10libtorrent9peer_list8set_seedEPNS_12torrent_peerEb
libtorrent-rasterbar.so.10:_ZN10libtorrent9peer_listC1ERNS_32torrent_peer_allocator_interfaceE
libtorrent-rasterbar.so.10:_ZN10libtorrent9peer_listC2ERNS_32torrent_peer_allocator_interfaceE
libtorrent-rasterbar.so.10:_ZN10libtorrent9peer_listD1Ev
libtorrent-rasterbar.so.10:_ZN10libtorrent9peer_listD2Ev
libtorrent-rasterbar.so.10:_ZN10libtorrent9split_urlENSt7__cxx1112basic_stringIcSt11char_traitsIcESaIcEEERN5boost6system10error_codeE
libtorrent-rasterbar.so.10:_ZN10libtorrent9stat_fileERKNSt7__cxx1112basic_stringIcSt11char_traitsIcESaIcEEEPNS_11file_statusERN5boost6system10error_codeEi
libtorrent-rasterbar.so.10:_ZN10libtorrent9to_stringEl
libtorrent-rasterbar.so.10:_ZN10libtorrent9xml_parseEN5boost17basic_string_viewIcSt11char_traitsIcEEESt8functionIFviS4_S4_EE
libtorrent-rasterbar.so.10:_ZN10libtorrenteqERKNS_5entryES2_
libtorrent-rasterbar.so.10:_ZN10libtorrentlsERSoRKNS_8digest32ILl160EEE
libtorrent-rasterbar.so.10:_ZN10libtorrentrsERSiRNS_8digest32ILl160EEE
libtorrent-rasterbar.so.10:_ZN5boost4asio6detail16service_registry6createINS1_13epoll_reactorENS0_17execution_contextEEEPNS5_7serviceEPv
libtorrent-rasterbar.so.10:_ZN5boost4asio6detail16service_registry6createINS1_16resolver_serviceINS0_2ip3udpEEENS0_10io_contextEEEPNS0_17execution_context7serviceEPv
libtorrent-rasterbar.so.10:_ZN5boost4asio6detail16service_registry6createINS1_22deadline_timer_serviceINS0_11time_traitsINS_10posix_time5ptimeEEEEENS0_17execution_contextEEEPNSA_7serviceEPv
libtorrent-rasterbar.so.10:_ZN5boost4asio6detail16service_registry6createINS1_22deadline_timer_serviceINS1_18chrono_time_traitsINSt6chrono3_V212system_clockENS0_11wait_traitsIS8_EEEEEENS0_10io_contextEEEPNS0_17execution_context7serviceEPv
libtorrent-rasterbar.so.10:_ZN5boost4asio6detail16service_registry6createINS1_23reactive_socket_serviceIN10libtorrent7netlinkEEENS0_10io_contextEEEPNS0_17execution_context7serviceEPv
libtorrent-rasterbar.so.10:_ZN5boost4asio6detail16service_registry6createINS1_23reactive_socket_serviceINS0_2ip3udpEEENS0_10io_contextEEEPNS0_17execution_context7serviceEPv
libtorrent-rasterbar.so.10:_ZN5boost4asio6detail16service_registry6createINS1_9schedulerENS0_17execution_contextEEEPNS5_7serviceEPv
libtorrent-rasterbar.so.10:_ZNK10libtorrent10lazy_entry12data_sectionEv
libtorrent-rasterbar.so.10:_ZNK10libtorrent10lazy_entry12list_pstr_atEi
libtorrent-rasterbar.so.10:_ZNK10libtorrent10lazy_entry13dict_find_intEPKc
libtorrent-rasterbar.so.10:_ZNK10libtorrent10lazy_entry14dict_find_dictEPKc
libtorrent-rasterbar.so.10:_ZNK10libtorrent10lazy_entry14dict_find_dictERKNSt7__cxx1112basic_stringIcSt11char_traitsIcESaIcEEE
libtorrent-rasterbar.so.10:_ZNK10libtorrent10lazy_entry14dict_find_listEPKc
libtorrent-rasterbar.so.10:_ZNK10libtorrent10lazy_entry14dict_find_pstrEPKc
libtorrent-rasterbar.so.10:_ZNK10libtorrent10lazy_entry16dict_find_stringEPKc
libtorrent-rasterbar.so.10:_ZNK10libtorrent10lazy_entry17list_int_value_atEil
libtorrent-rasterbar.so.10:_ZNK10libtorrent10lazy_entry19dict_find_int_valueEPKcl
libtorrent-rasterbar.so.10:_ZNK10libtorrent10lazy_entry20list_string_value_atB5cxx11Ei
libtorrent-rasterbar.so.10:_ZNK10libtorrent10lazy_entry22dict_find_string_valueB5cxx11EPKc
libtorrent-rasterbar.so.10:_ZNK10libtorrent10lazy_entry7dict_atB5cxx11Ei
libtorrent-rasterbar.so.10:_ZNK10libtorrent10lazy_entry8capacityEv
libtorrent-rasterbar.so.10:_ZNK10libtorrent10lazy_entry9int_valueEv
libtorrent-rasterbar.so.10:_ZNK10libtorrent10peer_alert7messageB5cxx11Ev
libtorrent-rasterbar.so.10:_ZNK10libtorrent10peer_class8get_infoEPNS_15peer_class_infoE
libtorrent-rasterbar.so.10:_ZNK10libtorrent10udp_socket13active_socks5Ev
libtorrent-rasterbar.so.10:_ZNK10libtorrent10utp_stream10recv_delayEv
libtorrent-rasterbar.so.10:_ZNK10libtorrent10utp_stream10send_delayEv
libtorrent-rasterbar.so.10:_ZNK10libtorrent10utp_stream14local_endpointERN5boost6system10error_codeE
libtorrent-rasterbar.so.10:_ZNK10libtorrent10utp_stream15remote_endpointERN5boost6system10error_codeE
libtorrent-rasterbar.so.10:_ZNK10libtorrent10utp_stream16read_buffer_sizeEv
libtorrent-rasterbar.so.10:_ZNK10libtorrent10utp_stream9availableEv
libtorrent-rasterbar.so.10:_ZNK10libtorrent11block_cache10all_piecesEv
libtorrent-rasterbar.so.10:_ZNK10libtorrent11block_cache21update_stats_countersERNS_8countersE
libtorrent-rasterbar.so.10:_ZNK10libtorrent11block_cache7pad_jobEPKNS_11disk_io_jobEii
libtorrent-rasterbar.so.10:_ZNK10libtorrent11block_cache9get_statsEPNS_12cache_statusE
libtorrent-rasterbar.so.10:_ZNK10libtorrent11external_ip16external_addressERKN5boost4asio2ip7addressE
libtorrent-rasterbar.so.10:_ZNK10libtorrent11fingerprint9to_stringB5cxx11Ev
libtorrent-rasterbar.so.10:_ZNK10libtorrent11http_parser15header_durationEN5boost17basic_string_viewIcSt11char_traitsIcEEE
libtorrent-rasterbar.so.10:_ZNK10libtorrent11http_parser22collapse_chunk_headersENS_4spanIcEE
libtorrent-rasterbar.so.10:_ZNK10libtorrent11http_parser6headerB5cxx11EN5boost17basic_string_viewIcSt11char_traitsIcEEE
libtorrent-rasterbar.so.10:_ZNK10libtorrent11http_parser8get_bodyEv
libtorrent-rasterbar.so.10:_ZNK10libtorrent11port_filter6accessEt
libtorrent-rasterbar.so.10:_ZNK10libtorrent11stats_alert7messageB5cxx11Ev
libtorrent-rasterbar.so.10:_ZNK10libtorrent12bdecode_node10non_owningEv
libtorrent-rasterbar.so.10:_ZNK10libtorrent12bdecode_node10string_ptrEv
libtorrent-rasterbar.so.10:_ZNK10libtorrent12bdecode_node12data_sectionEv
libtorrent-rasterbar.so.10:_ZNK10libtorrent12bdecode_node12string_valueEv
libtorrent-rasterbar.so.10:_ZNK10libtorrent12bdecode_node13dict_find_intEN5boost17basic_string_viewIcSt11char_traitsIcEEE
libtorrent-rasterbar.so.10:_ZNK10libtorrent12bdecode_node13string_lengthEv
libtorrent-rasterbar.so.10:_ZNK10libtorrent12bdecode_node14dict_find_dictEN5boost17basic_string_viewIcSt11char_traitsIcEEE
libtorrent-rasterbar.so.10:_ZNK10libtorrent12bdecode_node14dict_find_listEN5boost17basic_string_viewIcSt11char_traitsIcEEE
libtorrent-rasterbar.so.10:_ZNK10libtorrent12bdecode_node14has_soft_errorENS_4spanIcEE
libtorrent-rasterbar.so.10:_ZNK10libtorrent12bdecode_node16dict_find_stringEN5boost17basic_string_viewIcSt11char_traitsIcEEE
libtorrent-rasterbar.so.10:_ZNK10libtorrent12bdecode_node17list_int_value_atEil
libtorrent-rasterbar.so.10:_ZNK10libtorrent12bdecode_node19dict_find_int_valueEN5boost17basic_string_viewIcSt11char_traitsIcEEEl
libtorrent-rasterbar.so.10:_ZNK10libtorrent12bdecode_node20list_string_value_atEiN5boost17basic_string_viewIcSt11char_traitsIcEEE
libtorrent-rasterbar.so.10:_ZNK10libtorrent12bdecode_node22dict_find_string_valueEN5boost17basic_string_viewIcSt11char_traitsIcEEES5_
libtorrent-rasterbar.so.10:_ZNK10libtorrent12bdecode_node4typeEv
libtorrent-rasterbar.so.10:_ZNK10libtorrent12bdecode_node7dict_atEi
libtorrent-rasterbar.so.10:_ZNK10libtorrent12bdecode_node7list_atEi
libtorrent-rasterbar.so.10:_ZNK10libtorrent12bdecode_node9dict_findEN5boost17basic_string_viewIcSt11char_traitsIcEEE
libtorrent-rasterbar.so.10:_ZNK10libtorrent12bdecode_node9dict_sizeEv
libtorrent-rasterbar.so.10:_ZNK10libtorrent12bdecode_node9int_valueEv
libtorrent-rasterbar.so.10:_ZNK10libtorrent12bdecode_node9list_sizeEv
libtorrent-rasterbar.so.10:_ZNK10libtorrent12bdecode_nodecvbEv
libtorrent-rasterbar.so.10:_ZNK10libtorrent12file_storage10file_flagsENS_3aux14strong_typedefIiNS1_14file_index_tagEvEE
libtorrent-rasterbar.so.10:_ZNK10libtorrent12file_storage10file_indexERKNS_19internal_file_entryE
libtorrent-rasterbar.so.10:_ZNK10libtorrent12file_storage10file_rangeEv
libtorrent-rasterbar.so.10:_ZNK10libtorrent12file_storage10piece_sizeENS_3aux14strong_typedefIiNS1_15piece_index_tagEvEE
libtorrent-rasterbar.so.10:_ZNK10libtorrent12file_storage11file_offsetENS_3aux14strong_typedefIiNS1_14file_index_tagEvEE
libtorrent-rasterbar.so.10:_ZNK10libtorrent12file_storage11file_offsetERKNS_19internal_file_entryE
libtorrent-rasterbar.so.10:_ZNK10libtorrent12file_storage11internal_atEi
libtorrent-rasterbar.so.10:_ZNK10libtorrent12file_storage11pad_file_atENS_3aux14strong_typedefIiNS1_14file_index_tagEvEE
libtorrent-rasterbar.so.10:_ZNK10libtorrent12file_storage11pad_file_atERKNS_19internal_file_entryE
libtorrent-rasterbar.so.10:_ZNK10libtorrent12file_storage11piece_rangeEv
libtorrent-rasterbar.so.10:_ZNK10libtorrent12file_storage13at_deprecatedEi
libtorrent-rasterbar.so.10:_ZNK10libtorrent12file_storage13file_name_lenENS_3aux14strong_typedefIiNS1_14file_index_tagEvEE
libtorrent-rasterbar.so.10:_ZNK10libtorrent12file_storage13file_name_ptrENS_3aux14strong_typedefIiNS1_14file_index_tagEvEE
libtorrent-rasterbar.so.10:_ZNK10libtorrent12file_storage14file_at_offsetEl
libtorrent-rasterbar.so.10:_ZNK10libtorrent12file_storage14file_path_hashENS_3aux14strong_typedefIiNS1_14file_index_tagEvEERKNSt7__cxx1112basic_stringIcSt11char_traitsIcESaIcEEE
libtorrent-rasterbar.so.10:_ZNK10libtorrent12file_storage15all_path_hashesERSt13unordered_setIjSt4hashIjESt8equal_toIjESaIjEE
libtorrent-rasterbar.so.10:_ZNK10libtorrent12file_storage18file_absolute_pathENS_3aux14strong_typedefIiNS1_14file_index_tagEvEE
libtorrent-rasterbar.so.10:_ZNK10libtorrent12file_storage18internal_file_pathB5cxx11ENS_3aux14strong_typedefIiNS1_14file_index_tagEvEE
libtorrent-rasterbar.so.10:_ZNK10libtorrent12file_storage20file_index_at_offsetEl
libtorrent-rasterbar.so.10:_ZNK10libtorrent12file_storage25file_at_offset_deprecatedEl
libtorrent-rasterbar.so.10:_ZNK10libtorrent12file_storage2atEN9__gnu_cxx17__normal_iteratorIPKNS_19internal_file_entryESt6vectorIS3_SaIS3_EEEE
libtorrent-rasterbar.so.10:_ZNK10libtorrent12file_storage2atEi
libtorrent-rasterbar.so.10:_ZNK10libtorrent12file_storage4hashENS_3aux14strong_typedefIiNS1_14file_index_tagEvEE
libtorrent-rasterbar.so.10:_ZNK10libtorrent12file_storage4hashERKNS_19internal_file_entryE
libtorrent-rasterbar.so.10:_ZNK10libtorrent12file_storage5mtimeENS_3aux14strong_typedefIiNS1_14file_index_tagEvEE
libtorrent-rasterbar.so.10:_ZNK10libtorrent12file_storage5mtimeERKNS_19internal_file_entryE
libtorrent-rasterbar.so.10:_ZNK10libtorrent12file_storage7symlinkB5cxx11ENS_3aux14strong_typedefIiNS1_14file_index_tagEvEE
libtorrent-rasterbar.so.10:_ZNK10libtorrent12file_storage7symlinkB5cxx11ERKNS_19internal_file_entryE
libtorrent-rasterbar.so.10:_ZNK10libtorrent12file_storage8end_fileEv
libtorrent-rasterbar.so.10:_ZNK10libtorrent12file_storage8map_fileENS_3aux14strong_typedefIiNS1_14file_index_tagEvEEli
libtorrent-rasterbar.so.10:_ZNK10libtorrent12file_storage9file_nameB5cxx11ERKNS_19internal_file_entryE
libtorrent-rasterbar.so.10:_ZNK10libtorrent12file_storage9file_nameENS_3aux14strong_typedefIiNS1_14file_index_tagEvEE
libtorrent-rasterbar.so.10:_ZNK10libtorrent12file_storage9file_pathENS_3aux14strong_typedefIiNS1_14file_index_tagEvEERKNSt7__cxx1112basic_stringIcSt11char_traitsIcESaIcEEE
libtorrent-rasterbar.so.10:_ZNK10libtorrent12file_storage9file_pathERKNS_19internal_file_entryERKNSt7__cxx1112basic_stringIcSt11char_traitsIcESaIcEEE
libtorrent-rasterbar.so.10:_ZNK10libtorrent12file_storage9file_sizeENS_3aux14strong_typedefIiNS1_14file_index_tagEvEE
libtorrent-rasterbar.so.10:_ZNK10libtorrent12file_storage9file_sizeERKNS_19internal_file_entryE
libtorrent-rasterbar.so.10:_ZNK10libtorrent12file_storage9last_fileEv
libtorrent-rasterbar.so.10:_ZNK10libtorrent12file_storage9map_blockENS_3aux14strong_typedefIiNS1_15piece_index_tagEvEEli
libtorrent-rasterbar.so.10:_ZNK10libtorrent12file_storage9num_filesEv
libtorrent-rasterbar.so.10:_ZNK10libtorrent12piece_picker10add_blocksENS_3aux14strong_typedefIiNS1_15piece_index_tagEvEERKNS_14typed_bitfieldIS4_EERSt6vectorINS_11piece_blockESaISA_EESD_SD_iiPNS_12torrent_peerERKS9_IS4_SaIS4_EENS_5flags13bitfield_flagItNS_18picker_options_tagEvEE
libtorrent-rasterbar.so.10:_ZNK10libtorrent12piece_picker10all_piecesEv
libtorrent-rasterbar.so.10:_ZNK10libtorrent12piece_picker10extent_forENS_3aux14strong_typedefIiNS1_15piece_index_tagEvEE
libtorrent-rasterbar.so.10:_ZNK10libtorrent12piece_picker10extent_forENS_3aux14strong_typedefIiNS_16piece_extent_tagEvEE
libtorrent-rasterbar.so.10:_ZNK10libtorrent12piece_picker10have_pieceENS_3aux14strong_typedefIiNS1_15piece_index_tagEvEE
libtorrent-rasterbar.so.10:_ZNK10libtorrent12piece_picker10piece_infoENS_3aux14strong_typedefIiNS1_15piece_index_tagEvEERNS0_17downloading_pieceE
libtorrent-rasterbar.so.10:_ZNK10libtorrent12piece_picker11is_finishedENS_11piece_blockE
libtorrent-rasterbar.so.10:_ZNK10libtorrent12piece_picker11pick_piecesERKNS_14typed_bitfieldINS_3aux14strong_typedefIiNS2_15piece_index_tagEvEEEERSt6vectorINS_11piece_blockESaISA_EEiiPNS_12torrent_peerENS_5flags13bitfield_flagItNS_18picker_options_tagEvEERKS9_IS5_SaIS5_EEiRNS_8countersE
libtorrent-rasterbar.so.10:_ZNK10libtorrent12piece_picker11piece_statsENS_3aux14strong_typedefIiNS1_15piece_index_tagEvEE
libtorrent-rasterbar.so.10:_ZNK10libtorrent12piece_picker12expand_pieceENS_3aux14strong_typedefIiNS1_15piece_index_tagEvEEiRKNS_14typed_bitfieldIS4_EENS_5flags13bitfield_flagItNS_18picker_options_tagEvEE
libtorrent-rasterbar.so.10:_ZNK10libtorrent12piece_picker12is_requestedENS_11piece_blockE
libtorrent-rasterbar.so.10:_ZNK10libtorrent12piece_picker12priority_endEi
libtorrent-rasterbar.so.10:_ZNK10libtorrent12piece_picker13find_dl_pieceENS_3aux14strong_typedefIhNS_12dl_queue_tagEvEENS2_IiNS1_15piece_index_tagEvEE
libtorrent-rasterbar.so.10:_ZNK10libtorrent12piece_picker13is_downloadedENS_11piece_blockE
libtorrent-rasterbar.so.10:_ZNK10libtorrent12piece_picker13is_piece_freeENS_3aux14strong_typedefIiNS1_15piece_index_tagEvEERKNS_14typed_bitfieldIS4_EE
libtorrent-rasterbar.so.10:_ZNK10libtorrent12piece_picker13update_piecesEv
libtorrent-rasterbar.so.10:_ZNK10libtorrent12piece_picker14get_downloaderENS_11piece_blockE
libtorrent-rasterbar.so.10:_ZNK10libtorrent12piece_picker14piece_priorityENS_3aux14strong_typedefIiNS1_15piece_index_tagEvEE
libtorrent-rasterbar.so.10:_ZNK10libtorrent12piece_picker14priority_beginEi
libtorrent-rasterbar.so.10:_ZNK10libtorrent12piece_picker14priority_rangeEi
libtorrent-rasterbar.so.10:_ZNK10libtorrent12piece_picker14requested_fromERKNS0_17downloading_pieceEiPNS_12torrent_peerE
libtorrent-rasterbar.so.10:_ZNK10libtorrent12piece_picker15blocks_in_pieceENS_3aux14strong_typedefIiNS1_15piece_index_tagEvEE
libtorrent-rasterbar.so.10:_ZNK10libtorrent12piece_picker15get_downloadersERSt6vectorIPNS_12torrent_peerESaIS3_EENS_3aux14strong_typedefIiNS7_15piece_index_tagEvEE
libtorrent-rasterbar.so.10:_ZNK10libtorrent12piece_picker16blocks_for_pieceERKNS0_17downloading_pieceE
libtorrent-rasterbar.so.10:_ZNK10libtorrent12piece_picker16get_availabilityENS_3aux14strong_typedefIiNS1_15piece_index_tagEvEE
libtorrent-rasterbar.so.10:_ZNK10libtorrent12piece_picker16get_availabilityERNS_3aux17container_wrapperIiNS1_14strong_typedefIiNS1_15piece_index_tagEvEESt6vectorIiSaIiEEEE
libtorrent-rasterbar.so.10:_ZNK10libtorrent12piece_picker16has_piece_passedENS_3aux14strong_typedefIiNS1_15piece_index_tagEvEE
libtorrent-rasterbar.so.10:_ZNK10libtorrent12piece_picker16piece_prioritiesERSt6vectorINS_3aux14strong_typedefIhNS_21download_priority_tagEvEESaIS5_EE
libtorrent-rasterbar.so.10:_ZNK10libtorrent12piece_picker17is_piece_finishedENS_3aux14strong_typedefIiNS1_15piece_index_tagEvEE
libtorrent-rasterbar.so.10:_ZNK10libtorrent12piece_picker18distributed_copiesEv
libtorrent-rasterbar.so.10:_ZNK10libtorrent12piece_picker18get_download_queueEv
libtorrent-rasterbar.so.10:_ZNK10libtorrent12piece_picker19pad_blocks_in_pieceENS_3aux14strong_typedefIiNS1_15piece_index_tagEvEE
libtorrent-rasterbar.so.10:_ZNK10libtorrent12piece_picker22add_blocks_downloadingERKNS0_17downloading_pieceERKNS_14typed_bitfieldINS_3aux14strong_typedefIiNS5_15piece_index_tagEvEEEERSt6vectorINS_11piece_blockESaISD_EESG_SG_iiPNS_12torrent_peerENS_5flags13bitfield_flagItNS_18picker_options_tagEvEE
libtorrent-rasterbar.so.10:_ZNK10libtorrent12piece_picker23get_download_queue_sizeEv
libtorrent-rasterbar.so.10:_ZNK10libtorrent12piece_picker24get_download_queue_sizesEPiS1_S1_S1_
libtorrent-rasterbar.so.10:_ZNK10libtorrent12piece_picker28partial_compare_rarest_firstEPKNS0_17downloading_pieceES3_
libtorrent-rasterbar.so.10:_ZNK10libtorrent12piece_picker4haveEv
libtorrent-rasterbar.so.10:_ZNK10libtorrent12piece_picker4wantEv
libtorrent-rasterbar.so.10:_ZNK10libtorrent12piece_picker8can_pickENS_3aux14strong_typedefIiNS1_15piece_index_tagEvEERKNS_14typed_bitfieldIS4_EE
libtorrent-rasterbar.so.10:_ZNK10libtorrent12piece_picker9have_wantEv
libtorrent-rasterbar.so.10:_ZNK10libtorrent12piece_picker9num_peersENS_11piece_blockE
libtorrent-rasterbar.so.10:_ZNK10libtorrent12socks5_alert7messageB5cxx11Ev
libtorrent-rasterbar.so.10:_ZNK10libtorrent12torrent_info10http_seedsB5cxx11Ev
libtorrent-rasterbar.so.10:_ZNK10libtorrent12torrent_info11collectionsB5cxx11Ev
libtorrent-rasterbar.so.10:_ZNK10libtorrent12torrent_info14hash_for_pieceENS_3aux14strong_typedefIiNS1_15piece_index_tagEvEE
libtorrent-rasterbar.so.10:_ZNK10libtorrent12torrent_info16similar_torrentsEv
libtorrent-rasterbar.so.10:_ZNK10libtorrent12torrent_info17build_merkle_listENS_3aux14strong_typedefIiNS1_15piece_index_tagEvEE
libtorrent-rasterbar.so.10:_ZNK10libtorrent12torrent_info4infoEPKc
libtorrent-rasterbar.so.10:_ZNK10libtorrent12torrent_info8ssl_certEv
libtorrent-rasterbar.so.10:_ZNK10libtorrent12torrent_info9url_seedsB5cxx11Ev
libtorrent-rasterbar.so.10:_ZNK10libtorrent12torrent_peer12total_uploadEv
libtorrent-rasterbar.so.10:_ZNK10libtorrent12torrent_peer14total_downloadEv
libtorrent-rasterbar.so.10:_ZNK10libtorrent12torrent_peer4destEv
libtorrent-rasterbar.so.10:_ZNK10libtorrent12torrent_peer4rankERKNS_11external_ipEi
libtorrent-rasterbar.so.10:_ZNK10libtorrent12torrent_peer7addressEv
libtorrent-rasterbar.so.10:_ZNK10libtorrent12torrent_peer9to_stringB5cxx11Ev
libtorrent-rasterbar.so.10:_ZNK10libtorrent13alert_manager7pendingEv
libtorrent-rasterbar.so.10:_ZNK10libtorrent13dht_log_alert11log_messageEv
libtorrent-rasterbar.so.10:_ZNK10libtorrent13dht_log_alert7messageB5cxx11Ev
libtorrent-rasterbar.so.10:_ZNK10libtorrent13dht_pkt_alert7messageB5cxx11Ev
libtorrent-rasterbar.so.10:_ZNK10libtorrent13dht_pkt_alert7pkt_bufEv
libtorrent-rasterbar.so.10:_ZNK10libtorrent13dht_put_alert7messageB5cxx11Ev
libtorrent-rasterbar.so.10:_ZNK10libtorrent13packet_buffer2atEj
libtorrent-rasterbar.so.10:_ZNK10libtorrent13portmap_alert7messageB5cxx11Ev
libtorrent-rasterbar.so.10:_ZNK10libtorrent13settings_pack7get_intEi
libtorrent-rasterbar.so.10:_ZNK10libtorrent13settings_pack7get_strB5cxx11Ei
libtorrent-rasterbar.so.10:_ZNK10libtorrent13settings_pack7has_valEi
libtorrent-rasterbar.so.10:_ZNK10libtorrent13settings_pack8get_boolEi
libtorrent-rasterbar.so.10:_ZNK10libtorrent13torrent_alert12torrent_nameEv
libtorrent-rasterbar.so.10:_ZNK10libtorrent13torrent_alert7messageB5cxx11Ev
libtorrent-rasterbar.so.10:_ZNK10libtorrent13tracker_alert11tracker_urlEv
libtorrent-rasterbar.so.10:_ZNK10libtorrent13tracker_alert7messageB5cxx11Ev
libtorrent-rasterbar.so.10:_ZNK10libtorrent14announce_entry10is_workingEv
libtorrent-rasterbar.so.10:_ZNK10libtorrent14announce_entry12can_announceENSt6chrono10time_pointINS1_3_V212system_clockENS1_8durationIlSt5ratioILl1ELl1000000000EEEEEEb
libtorrent-rasterbar.so.10:_ZNK10libtorrent14create_torrent8generateEv
libtorrent-rasterbar.so.10:_ZNK10libtorrent14disk_io_thread10get_statusENS_3aux14strong_typedefIjNS_19storage_index_tag_tEvEE
libtorrent-rasterbar.so.10:_ZNK10libtorrent14disk_io_thread11num_threadsEv
libtorrent-rasterbar.so.10:_ZNK10libtorrent14disk_io_thread14get_cache_infoEPNS_12cache_statusENS_3aux14strong_typedefIjNS_19storage_index_tag_tEvEEbb
libtorrent-rasterbar.so.10:_ZNK10libtorrent14disk_io_thread21update_stats_countersERNS_8countersE
libtorrent-rasterbar.so.10:_ZNK10libtorrent14lsd_peer_alert7messageB5cxx11Ev
libtorrent-rasterbar.so.10:_ZNK10libtorrent14peer_ban_alert7messageB5cxx11Ev
libtorrent-rasterbar.so.10:_ZNK10libtorrent14peer_class_set9has_classENS_3aux14strong_typedefIjNS_14peer_class_tagEvEE
libtorrent-rasterbar.so.10:_ZNK10libtorrent14peer_log_alert11log_messageEv
libtorrent-rasterbar.so.10:_ZNK10libtorrent14peer_log_alert3msgEv
libtorrent-rasterbar.so.10:_ZNK10libtorrent14peer_log_alert7messageB5cxx11Ev
libtorrent-rasterbar.so.10:_ZNK10libtorrent14receive_buffer11max_receiveEv
libtorrent-rasterbar.so.10:_ZNK10libtorrent14receive_buffer3getEv
libtorrent-rasterbar.so.10:_ZNK10libtorrent14session_handle10peer_proxyEv
libtorrent-rasterbar.so.10:_ZNK10libtorrent14session_handle10save_stateERNS_5entryENS_5flags13bitfield_flagIjNS_20save_state_flags_tagEvEE
libtorrent-rasterbar.so.10:_ZNK10libtorrent14session_handle11listen_portEv
libtorrent-rasterbar.so.10:_ZNK10libtorrent14session_handle11max_uploadsEv
libtorrent-rasterbar.so.10:_ZNK10libtorrent14session_handle11num_uploadsEv
libtorrent-rasterbar.so.10:_ZNK10libtorrent14session_handle12find_torrentERKNS_8digest32ILl160EEE
libtorrent-rasterbar.so.10:_ZNK10libtorrent14session_handle12get_settingsEv
libtorrent-rasterbar.so.10:_ZNK10libtorrent14session_handle12get_torrentsEv
libtorrent-rasterbar.so.10:_ZNK10libtorrent14session_handle12is_listeningEv
libtorrent-rasterbar.so.10:_ZNK10libtorrent14session_handle13get_ip_filterEv
libtorrent-rasterbar.so.10:_ZNK10libtorrent14session_handle13tracker_proxyEv
libtorrent-rasterbar.so.10:_ZNK10libtorrent14session_handle14get_alert_maskEv
libtorrent-rasterbar.so.10:_ZNK10libtorrent14session_handle14get_cache_infoEPNS_12cache_statusENS_14torrent_handleEi
libtorrent-rasterbar.so.10:_ZNK10libtorrent14session_handle14get_cache_infoERKNS_8digest32ILl160EEERSt6vectorINS_17cached_piece_infoESaIS6_EE
libtorrent-rasterbar.so.10:_ZNK10libtorrent14session_handle14get_peer_classENS_3aux14strong_typedefIjNS_14peer_class_tagEvEE
libtorrent-rasterbar.so.10:_ZNK10libtorrent14session_handle14is_dht_runningEv
libtorrent-rasterbar.so.10:_ZNK10libtorrent14session_handle14web_seed_proxyEv
libtorrent-rasterbar.so.10:_ZNK10libtorrent14session_handle15get_pe_settingsEv
libtorrent-rasterbar.so.10:_ZNK10libtorrent14session_handle15max_connectionsEv
libtorrent-rasterbar.so.10:_ZNK10libtorrent14session_handle15num_connectionsEv
libtorrent-rasterbar.so.10:_ZNK10libtorrent14session_handle15ssl_listen_portEv
libtorrent-rasterbar.so.10:_ZNK10libtorrent14session_handle16get_cache_statusEv
libtorrent-rasterbar.so.10:_ZNK10libtorrent14session_handle16get_dht_settingsEv
libtorrent-rasterbar.so.10:_ZNK10libtorrent14session_handle17upload_rate_limitEv
libtorrent-rasterbar.so.10:_ZNK10libtorrent14session_handle18get_torrent_statusEPSt6vectorINS_14torrent_statusESaIS2_EERKSt8functionIFbRKS2_EENS_5flags13bitfield_flagIjNS_16status_flags_tagEvEE
libtorrent-rasterbar.so.10:_ZNK10libtorrent14session_handle18get_torrent_statusERKSt8functionIFbRKNS_14torrent_statusEEENS_5flags13bitfield_flagIjNS_16status_flags_tagEvEE
libtorrent-rasterbar.so.10:_ZNK10libtorrent14session_handle19download_rate_limitEv
libtorrent-rasterbar.so.10:_ZNK10libtorrent14session_handle21get_peer_class_filterEv
libtorrent-rasterbar.so.10:_ZNK10libtorrent14session_handle22refresh_torrent_statusEPSt6vectorINS_14torrent_statusESaIS2_EENS_5flags13bitfield_flagIjNS_16status_flags_tagEvEE
libtorrent-rasterbar.so.10:_ZNK10libtorrent14session_handle23local_upload_rate_limitEv
libtorrent-rasterbar.so.10:_ZNK10libtorrent14session_handle25local_download_rate_limitEv
libtorrent-rasterbar.so.10:_ZNK10libtorrent14session_handle25max_half_open_connectionsEv
libtorrent-rasterbar.so.10:_ZNK10libtorrent14session_handle26get_peer_class_type_filterEv
libtorrent-rasterbar.so.10:_ZNK10libtorrent14session_handle2idEv
libtorrent-rasterbar.so.10:_ZNK10libtorrent14session_handle5proxyEv
libtorrent-rasterbar.so.10:_ZNK10libtorrent14session_handle5stateEv
libtorrent-rasterbar.so.10:_ZNK10libtorrent14session_handle6statusEv
libtorrent-rasterbar.so.10:_ZNK10libtorrent14session_handle9dht_proxyEv
libtorrent-rasterbar.so.10:_ZNK10libtorrent14session_handle9dht_stateEv
libtorrent-rasterbar.so.10:_ZNK10libtorrent14session_handle9i2p_proxyEv
libtorrent-rasterbar.so.10:_ZNK10libtorrent14session_handle9is_pausedEv
libtorrent-rasterbar.so.10:_ZNK10libtorrent14torrent_handle10have_pieceENS_3aux14strong_typedefIiNS1_15piece_index_tagEvEE
libtorrent-rasterbar.so.10:_ZNK10libtorrent14torrent_handle10http_seedsB5cxx11Ev
libtorrent-rasterbar.so.10:_ZNK10libtorrent14torrent_handle10in_sessionEv
libtorrent-rasterbar.so.10:_ZNK10libtorrent14torrent_handle10read_pieceENS_3aux14strong_typedefIiNS1_15piece_index_tagEvEE
libtorrent-rasterbar.so.10:_ZNK10libtorrent14torrent_handle10set_pinnedEb
libtorrent-rasterbar.so.10:_ZNK10libtorrent14torrent_handle11add_trackerERKNS_14announce_entryE
libtorrent-rasterbar.so.10:_ZNK10libtorrent14torrent_handle11clear_errorEv
libtorrent-rasterbar.so.10:_ZNK10libtorrent14torrent_handle11file_statusERSt6vectorINS_15open_file_stateESaIS2_EE
libtorrent-rasterbar.so.10:_ZNK10libtorrent14torrent_handle11file_statusEv
libtorrent-rasterbar.so.10:_ZNK10libtorrent14torrent_handle11flush_cacheEv
libtorrent-rasterbar.so.10:_ZNK10libtorrent14torrent_handle11is_finishedEv
libtorrent-rasterbar.so.10:_ZNK10libtorrent14torrent_handle11max_uploadsEv
libtorrent-rasterbar.so.10:_ZNK10libtorrent14torrent_handle11rename_fileENS_3aux14strong_typedefIiNS1_14file_index_tagEvEERKNSt7__cxx1112basic_stringIcSt11char_traitsIcESaIcEEE
libtorrent-rasterbar.so.10:_ZNK10libtorrent14torrent_handle11unset_flagsENS_5flags13bitfield_flagImNS_17torrent_flags_tagEvEE
libtorrent-rasterbar.so.10:_ZNK10libtorrent14torrent_handle12add_url_seedERKNSt7__cxx1112basic_stringIcSt11char_traitsIcESaIcEEE
libtorrent-rasterbar.so.10:_ZNK10libtorrent14torrent_handle12auto_managedEb
libtorrent-rasterbar.so.10:_ZNK10libtorrent14torrent_handle12connect_peerERKN5boost4asio2ip14basic_endpointINS3_3tcpEEENS_5flags13bitfield_flagIhNS_21peer_source_flags_tagEvEENSA_IhNS_13pex_flags_tagEvEE
libtorrent-rasterbar.so.10:_ZNK10libtorrent14torrent_handle12has_metadataEv
libtorrent-rasterbar.so.10:_ZNK10libtorrent14torrent_handle12move_storageERKNSt7__cxx1112basic_stringIcSt11char_traitsIcESaIcEEENS_12move_flags_tE
libtorrent-rasterbar.so.10:_ZNK10libtorrent14torrent_handle12move_storageERKNSt7__cxx1112basic_stringIcSt11char_traitsIcESaIcEEEi
libtorrent-rasterbar.so.10:_ZNK10libtorrent14torrent_handle12set_metadataENS_4spanIKcEE
libtorrent-rasterbar.so.10:_ZNK10libtorrent14torrent_handle12set_priorityEi
libtorrent-rasterbar.so.10:_ZNK10libtorrent14torrent_handle12torrent_fileEv
libtorrent-rasterbar.so.10:_ZNK10libtorrent14torrent_handle12upload_limitEv
libtorrent-rasterbar.so.10:_ZNK10libtorrent14torrent_handle13add_http_seedERKNSt7__cxx1112basic_stringIcSt11char_traitsIcESaIcEEE
libtorrent-rasterbar.so.10:_ZNK10libtorrent14torrent_handle13file_priorityENS_3aux14strong_typedefIiNS1_14file_index_tagEvEE
libtorrent-rasterbar.so.10:_ZNK10libtorrent14torrent_handle13file_priorityENS_3aux14strong_typedefIiNS1_14file_index_tagEvEENS2_IhNS_21download_priority_tagEvEE
libtorrent-rasterbar.so.10:_ZNK10libtorrent14torrent_handle13file_progressERSt6vectorIfSaIfEE
libtorrent-rasterbar.so.10:_ZNK10libtorrent14torrent_handle13file_progressERSt6vectorIlSaIlEEi
libtorrent-rasterbar.so.10:_ZNK10libtorrent14torrent_handle13force_recheckEv
libtorrent-rasterbar.so.10:_ZNK10libtorrent14torrent_handle13get_peer_infoERSt6vectorINS_9peer_infoESaIS2_EE
libtorrent-rasterbar.so.10:_ZNK10libtorrent14torrent_handle13native_handleEv
libtorrent-rasterbar.so.10:_ZNK10libtorrent14torrent_handle13super_seedingEb
libtorrent-rasterbar.so.10:_ZNK10libtorrent14torrent_handle13super_seedingEv
libtorrent-rasterbar.so.10:_ZNK10libtorrent14torrent_handle13use_interfaceEPKc
libtorrent-rasterbar.so.10:_ZNK10libtorrent14torrent_handle14download_limitEv
libtorrent-rasterbar.so.10:_ZNK10libtorrent14torrent_handle14piece_priorityENS_3aux14strong_typedefIiNS1_15piece_index_tagEvEE
libtorrent-rasterbar.so.10:_ZNK10libtorrent14torrent_handle14piece_priorityENS_3aux14strong_typedefIiNS1_15piece_index_tagEvEENS2_IhNS_21download_priority_tagEvEE
libtorrent-rasterbar.so.10:_ZNK10libtorrent14torrent_handle14queue_positionEv
libtorrent-rasterbar.so.10:_ZNK10libtorrent14torrent_handle14scrape_trackerEi
libtorrent-rasterbar.so.10:_ZNK10libtorrent14torrent_handle14set_share_modeEb
libtorrent-rasterbar.so.10:_ZNK10libtorrent14torrent_handle15apply_ip_filterEb
libtorrent-rasterbar.so.10:_ZNK10libtorrent14torrent_handle15file_prioritiesEv
libtorrent-rasterbar.so.10:_ZNK10libtorrent14torrent_handle15is_auto_managedEv
libtorrent-rasterbar.so.10:_ZNK10libtorrent14torrent_handle15max_connectionsEv
libtorrent-rasterbar.so.10:_ZNK10libtorrent14torrent_handle15remove_url_seedERKNSt7__cxx1112basic_stringIcSt11char_traitsIcESaIcEEE
libtorrent-rasterbar.so.10:_ZNK10libtorrent14torrent_handle15set_max_uploadsEi
libtorrent-rasterbar.so.10:_ZNK10libtorrent14torrent_handle15set_upload_modeEb
libtorrent-rasterbar.so.10:_ZNK10libtorrent14torrent_handle15stop_when_readyEb
libtorrent-rasterbar.so.10:_ZNK10libtorrent14torrent_handle16force_reannounceEN5boost10posix_time13time_durationE
libtorrent-rasterbar.so.10:_ZNK10libtorrent14torrent_handle16force_reannounceEiiNS_5flags13bitfield_flagIhNS_20reannounce_flags_tagEvEE
libtorrent-rasterbar.so.10:_ZNK10libtorrent14torrent_handle16get_storage_implEv
libtorrent-rasterbar.so.10:_ZNK10libtorrent14torrent_handle16get_torrent_infoEv
libtorrent-rasterbar.so.10:_ZNK10libtorrent14torrent_handle16piece_prioritiesEv
libtorrent-rasterbar.so.10:_ZNK10libtorrent14torrent_handle16prioritize_filesERKSt6vectorINS_3aux14strong_typedefIhNS_21download_priority_tagEvEESaIS5_EE
libtorrent-rasterbar.so.10:_ZNK10libtorrent14torrent_handle16prioritize_filesERKSt6vectorIiSaIiEE
libtorrent-rasterbar.so.10:_ZNK10libtorrent14torrent_handle16remove_http_seedERKNSt7__cxx1112basic_stringIcSt11char_traitsIcESaIcEEE
libtorrent-rasterbar.so.10:_ZNK10libtorrent14torrent_handle16replace_trackersERKSt6vectorINS_14announce_entryESaIS2_EE
libtorrent-rasterbar.so.10:_ZNK10libtorrent14torrent_handle16save_resume_dataENS_5flags13bitfield_flagIhNS_21resume_data_flags_tagEvEE
libtorrent-rasterbar.so.10:_ZNK10libtorrent14torrent_handle16set_upload_limitEi
libtorrent-rasterbar.so.10:_ZNK10libtorrent14torrent_handle17prioritize_piecesERKSt6vectorINS_3aux14strong_typedefIhNS_21download_priority_tagEvEESaIS5_EE
libtorrent-rasterbar.so.10:_ZNK10libtorrent14torrent_handle17prioritize_piecesERKSt6vectorISt4pairINS_3aux14strong_typedefIiNS3_15piece_index_tagEvEENS4_IhNS_21download_priority_tagEvEEESaIS9_EE
libtorrent-rasterbar.so.10:_ZNK10libtorrent14torrent_handle17prioritize_piecesERKSt6vectorISt4pairINS_3aux14strong_typedefIiNS3_15piece_index_tagEvEEiESaIS7_EE
libtorrent-rasterbar.so.10:_ZNK10libtorrent14torrent_handle17prioritize_piecesERKSt6vectorIiSaIiEE
libtorrent-rasterbar.so.10:_ZNK10libtorrent14torrent_handle17queue_position_upEv
libtorrent-rasterbar.so.10:_ZNK10libtorrent14torrent_handle17set_tracker_loginERKNSt7__cxx1112basic_stringIcSt11char_traitsIcESaIcEEES8_
libtorrent-rasterbar.so.10:_ZNK10libtorrent14torrent_handle17write_resume_dataEv
libtorrent-rasterbar.so.10:_ZNK10libtorrent14torrent_handle18force_dht_announceEv
libtorrent-rasterbar.so.10:_ZNK10libtorrent14torrent_handle18get_download_queueERSt6vectorINS_18partial_piece_infoESaIS2_EE
libtorrent-rasterbar.so.10:_ZNK10libtorrent14torrent_handle18get_full_peer_listERSt6vectorINS_15peer_list_entryESaIS2_EE
libtorrent-rasterbar.so.10:_ZNK10libtorrent14torrent_handle18piece_availabilityERSt6vectorIiSaIiEE
libtorrent-rasterbar.so.10:_ZNK10libtorrent14torrent_handle18queue_position_setENS_3aux14strong_typedefIiNS_18queue_position_tagEvEE
libtorrent-rasterbar.so.10:_ZNK10libtorrent14torrent_handle18queue_position_topEv
libtorrent-rasterbar.so.10:_ZNK10libtorrent14torrent_handle18set_download_limitEi
libtorrent-rasterbar.so.10:_ZNK10libtorrent14torrent_handle18set_piece_deadlineENS_3aux14strong_typedefIiNS1_15piece_index_tagEvEEiNS_5flags13bitfield_flagIhNS_18deadline_flags_tagEvEE
libtorrent-rasterbar.so.10:_ZNK10libtorrent14torrent_handle19get_file_prioritiesEv
libtorrent-rasterbar.so.10:_ZNK10libtorrent14torrent_handle19queue_position_downEv
libtorrent-rasterbar.so.10:_ZNK10libtorrent14torrent_handle19set_max_connectionsEi
libtorrent-rasterbar.so.10:_ZNK10libtorrent14torrent_handle20get_piece_prioritiesEv
libtorrent-rasterbar.so.10:_ZNK10libtorrent14torrent_handle20reset_piece_deadlineENS_3aux14strong_typedefIiNS1_15piece_index_tagEvEE
libtorrent-rasterbar.so.10:_ZNK10libtorrent14torrent_handle21clear_piece_deadlinesEv
libtorrent-rasterbar.so.10:_ZNK10libtorrent14torrent_handle21get_peer_upload_limitEN5boost4asio2ip14basic_endpointINS3_3tcpEEE
libtorrent-rasterbar.so.10:_ZNK10libtorrent14torrent_handle21need_save_resume_dataEv
libtorrent-rasterbar.so.10:_ZNK10libtorrent14torrent_handle21queue_position_bottomEv
libtorrent-rasterbar.so.10:_ZNK10libtorrent14torrent_handle21set_peer_upload_limitEN5boost4asio2ip14basic_endpointINS3_3tcpEEEi
libtorrent-rasterbar.so.10:_ZNK10libtorrent14torrent_handle22is_sequential_downloadEv
libtorrent-rasterbar.so.10:_ZNK10libtorrent14torrent_handle23get_peer_download_limitEN5boost4asio2ip14basic_endpointINS3_3tcpEEE
libtorrent-rasterbar.so.10:_ZNK10libtorrent14torrent_handle23set_peer_download_limitEN5boost4asio2ip14basic_endpointINS3_3tcpEEEi
libtorrent-rasterbar.so.10:_ZNK10libtorrent14torrent_handle23set_sequential_downloadEb
libtorrent-rasterbar.so.10:_ZNK10libtorrent14torrent_handle4nameB5cxx11Ev
libtorrent-rasterbar.so.10:_ZNK10libtorrent14torrent_handle5flagsEv
libtorrent-rasterbar.so.10:_ZNK10libtorrent14torrent_handle5pauseENS_5flags13bitfield_flagIhNS_15pause_flags_tagEvEE
libtorrent-rasterbar.so.10:_ZNK10libtorrent14torrent_handle6resumeEv
libtorrent-rasterbar.so.10:_ZNK10libtorrent14torrent_handle6statusENS_5flags13bitfield_flagIjNS_16status_flags_tagEvEE
libtorrent-rasterbar.so.10:_ZNK10libtorrent14torrent_handle7is_seedEv
libtorrent-rasterbar.so.10:_ZNK10libtorrent14torrent_handle8is_validEv
libtorrent-rasterbar.so.10:_ZNK10libtorrent14torrent_handle8trackersEv
libtorrent-rasterbar.so.10:_ZNK10libtorrent14torrent_handle9add_pieceENS_3aux14strong_typedefIiNS1_15piece_index_tagEvEEPKcNS_5flags13bitfield_flagIhNS_19add_piece_flags_tagEvEE
libtorrent-rasterbar.so.10:_ZNK10libtorrent14torrent_handle9info_hashEv
libtorrent-rasterbar.so.10:_ZNK10libtorrent14torrent_handle9is_pausedEv
libtorrent-rasterbar.so.10:_ZNK10libtorrent14torrent_handle9save_pathB5cxx11Ev
libtorrent-rasterbar.so.10:_ZNK10libtorrent14torrent_handle9set_flagsENS_5flags13bitfield_flagImNS_17torrent_flags_tagEvEE
libtorrent-rasterbar.so.10:_ZNK10libtorrent14torrent_handle9set_flagsENS_5flags13bitfield_flagImNS_17torrent_flags_tagEvEES4_
libtorrent-rasterbar.so.10:_ZNK10libtorrent14torrent_handle9set_ratioEf
libtorrent-rasterbar.so.10:_ZNK10libtorrent14torrent_handle9url_seedsB5cxx11Ev
libtorrent-rasterbar.so.10:_ZNK10libtorrent14url_seed_alert10server_urlEv
libtorrent-rasterbar.so.10:_ZNK10libtorrent14url_seed_alert13error_messageEv
libtorrent-rasterbar.so.10:_ZNK10libtorrent14url_seed_alert7messageB5cxx11Ev
libtorrent-rasterbar.so.10:_ZNK10libtorrent15default_storage12use_partfileENS_3aux14strong_typedefIiNS1_14file_index_tagEvEE
libtorrent-rasterbar.so.10:_ZNK10libtorrent15default_storage14open_file_implENS_3aux14strong_typedefIiNS1_14file_index_tagEvEENS_5flags13bitfield_flagIjNS_13open_mode_tagEvEERN5boost6system10error_codeE
libtorrent-rasterbar.so.10:_ZNK10libtorrent15default_storage9open_fileENS_3aux14strong_typedefIiNS1_14file_index_tagEvEENS_5flags13bitfield_flagIjNS_13open_mode_tagEvEERNS_13storage_errorE
libtorrent-rasterbar.so.10:_ZNK10libtorrent15dht_error_alert7messageB5cxx11Ev
libtorrent-rasterbar.so.10:_ZNK10libtorrent15dht_reply_alert7messageB5cxx11Ev
libtorrent-rasterbar.so.10:_ZNK10libtorrent15dht_stats_alert7messageB5cxx11Ev
libtorrent-rasterbar.so.10:_ZNK10libtorrent15lsd_error_alert7messageB5cxx11Ev
libtorrent-rasterbar.so.10:_ZNK10libtorrent15peer_class_pool2atENS_3aux14strong_typedefIjNS_14peer_class_tagEvEE
libtorrent-rasterbar.so.10:_ZNK10libtorrent15peer_connection10should_logENS_14peer_log_alert11direction_tE
libtorrent-rasterbar.so.10:_ZNK10libtorrent15peer_connection12get_bitfieldEv
libtorrent-rasterbar.so.10:_ZNK10libtorrent15peer_connection12get_priorityEi
libtorrent-rasterbar.so.10:_ZNK10libtorrent15peer_connection12upload_queueEv
libtorrent-rasterbar.so.10:_ZNK10libtorrent15peer_connection12verify_pieceERKNS_12peer_requestE
libtorrent-rasterbar.so.10:_ZNK10libtorrent15peer_connection13get_peer_infoERNS_9peer_infoE
libtorrent-rasterbar.so.10:_ZNK10libtorrent15peer_connection13request_queueEv
libtorrent-rasterbar.so.10:_ZNK10libtorrent15peer_connection14can_disconnectERKN5boost6system10error_codeE
libtorrent-rasterbar.so.10:_ZNK10libtorrent15peer_connection14download_queueEv
libtorrent-rasterbar.so.10:_ZNK10libtorrent15peer_connection14picker_optionsEv
libtorrent-rasterbar.so.10:_ZNK10libtorrent15peer_connection15request_timeoutEv
libtorrent-rasterbar.so.10:_ZNK10libtorrent15peer_connection16on_local_networkEv
libtorrent-rasterbar.so.10:_ZNK10libtorrent15peer_connection19download_queue_timeEi
libtorrent-rasterbar.so.10:_ZNK10libtorrent15peer_connection20ignore_unchoke_slotsEv
libtorrent-rasterbar.so.10:_ZNK10libtorrent15peer_connection21max_out_request_queueEv
libtorrent-rasterbar.so.10:_ZNK10libtorrent15peer_connection25can_request_time_criticalEv
libtorrent-rasterbar.so.10:_ZNK10libtorrent15peer_connection26downloading_piece_progressEv
libtorrent-rasterbar.so.10:_ZNK10libtorrent15peer_connection7is_seedEv
libtorrent-rasterbar.so.10:_ZNK10libtorrent15peer_connection7timeoutEv
libtorrent-rasterbar.so.10:_ZNK10libtorrent15peer_connection8peer_logENS_14peer_log_alert11direction_tEPKc
libtorrent-rasterbar.so.10:_ZNK10libtorrent15peer_connection8peer_logENS_14peer_log_alert11direction_tEPKcS4_z
libtorrent-rasterbar.so.10:_ZNK10libtorrent15peer_connection9can_writeEv
libtorrent-rasterbar.so.10:_ZNK10libtorrent15peer_connection9has_pieceENS_3aux14strong_typedefIiNS1_15piece_index_tagEvEE
libtorrent-rasterbar.so.10:_ZNK10libtorrent15peer_connection9on_paroleEv
libtorrent-rasterbar.so.10:_ZNK10libtorrent15peer_connection9peer_rankEv
libtorrent-rasterbar.so.10:_ZNK10libtorrent15tracker_manager12num_requestsEv
libtorrent-rasterbar.so.10:_ZNK10libtorrent15tracker_manager5emptyEv
libtorrent-rasterbar.so.10:_ZNK10libtorrent15trackerid_alert10tracker_idEv
libtorrent-rasterbar.so.10:_ZNK10libtorrent15trackerid_alert7messageB5cxx11Ev
libtorrent-rasterbar.so.10:_ZNK10libtorrent15udp_error_alert7messageB5cxx11Ev
libtorrent-rasterbar.so.10:_ZNK10libtorrent16file_error_alert7messageB5cxx11Ev
libtorrent-rasterbar.so.10:_ZNK10libtorrent16file_error_alert8filenameEv
libtorrent-rasterbar.so.10:_ZNK10libtorrent16mmap_cache_alert7messageB5cxx11Ev
libtorrent-rasterbar.so.10:_ZNK10libtorrent16peer_error_alert7messageB5cxx11Ev
libtorrent-rasterbar.so.10:_ZNK10libtorrent16picker_log_alert6blocksEv
libtorrent-rasterbar.so.10:_ZNK10libtorrent16picker_log_alert7messageB5cxx11Ev
libtorrent-rasterbar.so.10:_ZNK10libtorrent16read_piece_alert7messageB5cxx11Ev
libtorrent-rasterbar.so.10:_ZNK10libtorrent17add_torrent_alert7messageB5cxx11Ev
libtorrent-rasterbar.so.10:_ZNK10libtorrent17announce_endpoint12can_announceENSt6chrono10time_pointINS1_3_V212system_clockENS1_8durationIlSt5ratioILl1ELl1000000000EEEEEEbh
libtorrent-rasterbar.so.10:_ZNK10libtorrent17bandwidth_channel10quota_leftEv
libtorrent-rasterbar.so.10:_ZNK10libtorrent17bandwidth_manager10queue_sizeEv
libtorrent-rasterbar.so.10:_ZNK10libtorrent17bandwidth_manager12queued_bytesEv
libtorrent-rasterbar.so.10:_ZNK10libtorrent17external_ip_alert7messageB5cxx11Ev
libtorrent-rasterbar.so.10:_ZNK10libtorrent17hash_failed_alert7messageB5cxx11Ev
libtorrent-rasterbar.so.10:_ZNK10libtorrent17performance_alert7messageB5cxx11Ev
libtorrent-rasterbar.so.10:_ZNK10libtorrent17portmap_log_alert11log_messageEv
libtorrent-rasterbar.so.10:_ZNK10libtorrent17portmap_log_alert7messageB5cxx11Ev
libtorrent-rasterbar.so.10:_ZNK10libtorrent17torrent_log_alert11log_messageEv
libtorrent-rasterbar.so.10:_ZNK10libtorrent17torrent_log_alert3msgEv
libtorrent-rasterbar.so.10:_ZNK10libtorrent17torrent_log_alert7messageB5cxx11Ev
libtorrent-rasterbar.so.10:_ZNK10libtorrent18bt_peer_connection12in_handshakeEv
libtorrent-rasterbar.so.10:_ZNK10libtorrent18bt_peer_connection22get_specific_peer_infoERNS_9peer_infoE
libtorrent-rasterbar.so.10:_ZNK10libtorrent18bt_peer_connection26downloading_piece_progressEv
libtorrent-rasterbar.so.10:_ZNK10libtorrent18dht_announce_alert7messageB5cxx11Ev
libtorrent-rasterbar.so.10:_ZNK10libtorrent18file_renamed_alert7messageB5cxx11Ev
libtorrent-rasterbar.so.10:_ZNK10libtorrent18file_renamed_alert8new_nameEv
libtorrent-rasterbar.so.10:_ZNK10libtorrent18peer_blocked_alert7messageB5cxx11Ev
libtorrent-rasterbar.so.10:_ZNK10libtorrent18peer_connect_alert7messageB5cxx11Ev
libtorrent-rasterbar.so.10:_ZNK10libtorrent18peer_snubbed_alert7messageB5cxx11Ev
libtorrent-rasterbar.so.10:_ZNK10libtorrent18scrape_reply_alert7messageB5cxx11Ev
libtorrent-rasterbar.so.10:_ZNK10libtorrent18state_update_alert7messageB5cxx11Ev
libtorrent-rasterbar.so.10:_ZNK10libtorrent18tracker_connection14bind_interfaceEv
libtorrent-rasterbar.so.10:_ZNK10libtorrent18tracker_connection9requesterEv
libtorrent-rasterbar.so.10:_ZNK10libtorrent19block_timeout_alert7messageB5cxx11Ev
libtorrent-rasterbar.so.10:_ZNK10libtorrent19dht_bootstrap_alert7messageB5cxx11Ev
libtorrent-rasterbar.so.10:_ZNK10libtorrent19dht_get_peers_alert7messageB5cxx11Ev
libtorrent-rasterbar.so.10:_ZNK10libtorrent19listen_failed_alert16listen_interfaceEv
libtorrent-rasterbar.so.10:_ZNK10libtorrent19listen_failed_alert7messageB5cxx11Ev
libtorrent-rasterbar.so.10:_ZNK10libtorrent19portmap_error_alert7messageB5cxx11Ev
libtorrent-rasterbar.so.10:_ZNK10libtorrent19scrape_failed_alert13error_messageEv
libtorrent-rasterbar.so.10:_ZNK10libtorrent19scrape_failed_alert7messageB5cxx11Ev
libtorrent-rasterbar.so.10:_ZNK10libtorrent19session_error_alert7messageB5cxx11Ev
libtorrent-rasterbar.so.10:_ZNK10libtorrent19session_stats_alert7messageB5cxx11Ev
libtorrent-rasterbar.so.10:_ZNK10libtorrent19session_stats_alert8countersEv
libtorrent-rasterbar.so.10:_ZNK10libtorrent19state_changed_alert7messageB5cxx11Ev
libtorrent-rasterbar.so.10:_ZNK10libtorrent19storage_moved_alert12storage_pathEv
libtorrent-rasterbar.so.10:_ZNK10libtorrent19storage_moved_alert7messageB5cxx11Ev
libtorrent-rasterbar.so.10:_ZNK10libtorrent19torrent_added_alert7messageB5cxx11Ev
libtorrent-rasterbar.so.10:_ZNK10libtorrent19torrent_error_alert7messageB5cxx11Ev
libtorrent-rasterbar.so.10:_ZNK10libtorrent19torrent_error_alert8filenameEv
libtorrent-rasterbar.so.10:_ZNK10libtorrent19tracker_error_alert13error_messageEv
libtorrent-rasterbar.so.10:_ZNK10libtorrent19tracker_error_alert7messageB5cxx11Ev
libtorrent-rasterbar.so.10:_ZNK10libtorrent19tracker_reply_alert7messageB5cxx11Ev
libtorrent-rasterbar.so.10:_ZNK10libtorrent19web_connection_base11add_headersERNSt7__cxx1112basic_stringIcSt11char_traitsIcESaIcEEERKNS_3aux16session_settingsEb
libtorrent-rasterbar.so.10:_ZNK10libtorrent19web_connection_base12in_handshakeEv
libtorrent-rasterbar.so.10:_ZNK10libtorrent19web_connection_base22get_specific_peer_infoERNS_9peer_infoE
libtorrent-rasterbar.so.10:_ZNK10libtorrent19web_connection_base7timeoutEv
libtorrent-rasterbar.so.10:_ZNK10libtorrent19web_peer_connection22get_specific_peer_infoERNS_9peer_infoE
libtorrent-rasterbar.so.10:_ZNK10libtorrent19web_peer_connection26downloading_piece_progressEv
libtorrent-rasterbar.so.10:_ZNK10libtorrent20alerts_dropped_alert7messageB5cxx11Ev
libtorrent-rasterbar.so.10:_ZNK10libtorrent20anonymous_mode_alert7messageB5cxx11Ev
libtorrent-rasterbar.so.10:_ZNK10libtorrent20block_finished_alert7messageB5cxx11Ev
libtorrent-rasterbar.so.10:_ZNK10libtorrent20block_uploaded_alert7messageB5cxx11Ev
libtorrent-rasterbar.so.10:_ZNK10libtorrent20dht_live_nodes_alert5nodesEv
libtorrent-rasterbar.so.10:_ZNK10libtorrent20dht_live_nodes_alert7messageB5cxx11Ev
libtorrent-rasterbar.so.10:_ZNK10libtorrent20dht_live_nodes_alert9num_nodesEv
libtorrent-rasterbar.so.10:_ZNK10libtorrent20file_completed_alert7messageB5cxx11Ev
libtorrent-rasterbar.so.10:_ZNK10libtorrent20http_seed_connection22get_specific_peer_infoERNS_9peer_infoE
libtorrent-rasterbar.so.10:_ZNK10libtorrent20http_seed_connection26downloading_piece_progressEv
libtorrent-rasterbar.so.10:_ZNK10libtorrent20peer_unsnubbed_alert7messageB5cxx11Ev
libtorrent-rasterbar.so.10:_ZNK10libtorrent20piece_finished_alert7messageB5cxx11Ev
libtorrent-rasterbar.so.10:_ZNK10libtorrent20torrent_paused_alert7messageB5cxx11Ev
libtorrent-rasterbar.so.10:_ZNK10libtorrent20torrent_update_alert7messageB5cxx11Ev
libtorrent-rasterbar.so.10:_ZNK10libtorrent20unwanted_block_alert7messageB5cxx11Ev
libtorrent-rasterbar.so.10:_ZNK10libtorrent21invalid_request_alert7messageB5cxx11Ev
libtorrent-rasterbar.so.10:_ZNK10libtorrent21metadata_failed_alert7messageB5cxx11Ev
libtorrent-rasterbar.so.10:_ZNK10libtorrent21request_dropped_alert7messageB5cxx11Ev
libtorrent-rasterbar.so.10:_ZNK10libtorrent21torrent_checked_alert7messageB5cxx11Ev
libtorrent-rasterbar.so.10:_ZNK10libtorrent21torrent_deleted_alert7messageB5cxx11Ev
libtorrent-rasterbar.so.10:_ZNK10libtorrent21torrent_removed_alert7messageB5cxx11Ev
libtorrent-rasterbar.so.10:_ZNK10libtorrent21torrent_resumed_alert7messageB5cxx11Ev
libtorrent-rasterbar.so.10:_ZNK10libtorrent21tracker_warning_alert15warning_messageEv
libtorrent-rasterbar.so.10:_ZNK10libtorrent21tracker_warning_alert7messageB5cxx11Ev
libtorrent-rasterbar.so.10:_ZNK10libtorrent22dht_mutable_item_alert7messageB5cxx11Ev
libtorrent-rasterbar.so.10:_ZNK10libtorrent22incoming_request_alert7messageB5cxx11Ev
libtorrent-rasterbar.so.10:_ZNK10libtorrent22listen_succeeded_alert7messageB5cxx11Ev
libtorrent-rasterbar.so.10:_ZNK10libtorrent22peer_connection_handle10should_logENS_14peer_log_alert11direction_tE
libtorrent-rasterbar.so.10:_ZNK10libtorrent22peer_connection_handle11find_pluginEN5boost17basic_string_viewIcSt11char_traitsIcEEE
libtorrent-rasterbar.so.10:_ZNK10libtorrent22peer_connection_handle11is_outgoingEv
libtorrent-rasterbar.so.10:_ZNK10libtorrent22peer_connection_handle11upload_onlyEv
libtorrent-rasterbar.so.10:_ZNK10libtorrent22peer_connection_handle12has_metadataEv
libtorrent-rasterbar.so.10:_ZNK10libtorrent22peer_connection_handle12in_handshakeEv
libtorrent-rasterbar.so.10:_ZNK10libtorrent22peer_connection_handle13get_peer_infoERNS_9peer_infoE
libtorrent-rasterbar.so.10:_ZNK10libtorrent22peer_connection_handle13is_connectingEv
libtorrent-rasterbar.so.10:_ZNK10libtorrent22peer_connection_handle14can_disconnectERKN5boost6system10error_codeE
libtorrent-rasterbar.so.10:_ZNK10libtorrent22peer_connection_handle14is_interestingEv
libtorrent-rasterbar.so.10:_ZNK10libtorrent22peer_connection_handle14local_endpointEv
libtorrent-rasterbar.so.10:_ZNK10libtorrent22peer_connection_handle15has_peer_chokedEv
libtorrent-rasterbar.so.10:_ZNK10libtorrent22peer_connection_handle16is_disconnectingEv
libtorrent-rasterbar.so.10:_ZNK10libtorrent22peer_connection_handle16on_local_networkEv
libtorrent-rasterbar.so.10:_ZNK10libtorrent22peer_connection_handle18associated_torrentEv
libtorrent-rasterbar.so.10:_ZNK10libtorrent22peer_connection_handle18is_peer_interestedEv
libtorrent-rasterbar.so.10:_ZNK10libtorrent22peer_connection_handle18last_seen_completeEv
libtorrent-rasterbar.so.10:_ZNK10libtorrent22peer_connection_handle20ignore_unchoke_slotsEv
libtorrent-rasterbar.so.10:_ZNK10libtorrent22peer_connection_handle20time_of_last_unchokeEv
libtorrent-rasterbar.so.10:_ZNK10libtorrent22peer_connection_handle3pidEv
libtorrent-rasterbar.so.10:_ZNK10libtorrent22peer_connection_handle4typeEv
libtorrent-rasterbar.so.10:_ZNK10libtorrent22peer_connection_handle6failedEv
libtorrent-rasterbar.so.10:_ZNK10libtorrent22peer_connection_handle6remoteEv
libtorrent-rasterbar.so.10:_ZNK10libtorrent22peer_connection_handle7is_seedEv
libtorrent-rasterbar.so.10:_ZNK10libtorrent22peer_connection_handle8peer_logENS_14peer_log_alert11direction_tEPKcS4_z
libtorrent-rasterbar.so.10:_ZNK10libtorrent22peer_connection_handle9has_pieceENS_3aux14strong_typedefIiNS1_15piece_index_tagEvEE
libtorrent-rasterbar.so.10:_ZNK10libtorrent22peer_connection_handle9is_chokedEv
libtorrent-rasterbar.so.10:_ZNK10libtorrent22save_resume_data_alert7messageB5cxx11Ev
libtorrent-rasterbar.so.10:_ZNK10libtorrent22torrent_finished_alert7messageB5cxx11Ev
libtorrent-rasterbar.so.10:_ZNK10libtorrent22tracker_announce_alert7messageB5cxx11Ev
libtorrent-rasterbar.so.10:_ZNK10libtorrent23block_downloading_alert7messageB5cxx11Ev
libtorrent-rasterbar.so.10:_ZNK10libtorrent23metadata_received_alert7messageB5cxx11Ev
libtorrent-rasterbar.so.10:_ZNK10libtorrent23peer_disconnected_alert7messageB5cxx11Ev
libtorrent-rasterbar.so.10:_ZNK10libtorrent23torrent_need_cert_alert7messageB5cxx11Ev
libtorrent-rasterbar.so.10:_ZNK10libtorrent24dht_immutable_item_alert7messageB5cxx11Ev
libtorrent-rasterbar.so.10:_ZNK10libtorrent24file_rename_failed_alert7messageB5cxx11Ev
libtorrent-rasterbar.so.10:_ZNK10libtorrent25bt_peer_connection_handle13native_handleEv
libtorrent-rasterbar.so.10:_ZNK10libtorrent25bt_peer_connection_handle15packet_finishedEv
libtorrent-rasterbar.so.10:_ZNK10libtorrent25bt_peer_connection_handle18support_extensionsEv
libtorrent-rasterbar.so.10:_ZNK10libtorrent25bt_peer_connection_handle19supports_encryptionEv
libtorrent-rasterbar.so.10:_ZNK10libtorrent25dht_direct_response_alert7messageB5cxx11Ev
libtorrent-rasterbar.so.10:_ZNK10libtorrent25dht_direct_response_alert8responseEv
libtorrent-rasterbar.so.10:_ZNK10libtorrent25dht_get_peers_reply_alert5peersERSt6vectorIN5boost4asio2ip14basic_endpointINS4_3tcpEEESaIS7_EE
libtorrent-rasterbar.so.10:_ZNK10libtorrent25dht_get_peers_reply_alert5peersEv
libtorrent-rasterbar.so.10:_ZNK10libtorrent25dht_get_peers_reply_alert7messageB5cxx11Ev
libtorrent-rasterbar.so.10:_ZNK10libtorrent25dht_get_peers_reply_alert9num_peersEv
libtorrent-rasterbar.so.10:_ZNK10libtorrent25fastresume_rejected_alert7messageB5cxx11Ev
libtorrent-rasterbar.so.10:_ZNK10libtorrent25fastresume_rejected_alert9file_pathEv
libtorrent-rasterbar.so.10:_ZNK10libtorrent25incoming_connection_alert7messageB5cxx11Ev
libtorrent-rasterbar.so.10:_ZNK10libtorrent26session_stats_header_alert7messageB5cxx11Ev
libtorrent-rasterbar.so.10:_ZNK10libtorrent26storage_moved_failed_alert7messageB5cxx11Ev
libtorrent-rasterbar.so.10:_ZNK10libtorrent26storage_moved_failed_alert9file_pathEv
libtorrent-rasterbar.so.10:_ZNK10libtorrent27dht_sample_infohashes_alert11num_samplesEv
libtorrent-rasterbar.so.10:_ZNK10libtorrent27dht_sample_infohashes_alert5nodesEv
libtorrent-rasterbar.so.10:_ZNK10libtorrent27dht_sample_infohashes_alert7messageB5cxx11Ev
libtorrent-rasterbar.so.10:_ZNK10libtorrent27dht_sample_infohashes_alert7samplesEv
libtorrent-rasterbar.so.10:_ZNK10libtorrent27dht_sample_infohashes_alert9num_nodesEv
libtorrent-rasterbar.so.10:_ZNK10libtorrent27torrent_delete_failed_alert7messageB5cxx11Ev
libtorrent-rasterbar.so.10:_ZNK10libtorrent28dht_outgoing_get_peers_alert7messageB5cxx11Ev
libtorrent-rasterbar.so.10:_ZNK10libtorrent29save_resume_data_failed_alert7messageB5cxx11Ev
libtorrent-rasterbar.so.10:_ZNK10libtorrent3aux11socket_type14get_io_serviceEv
libtorrent-rasterbar.so.10:_ZNK10libtorrent3aux11socket_type14local_endpointERN5boost6system10error_codeE
libtorrent-rasterbar.so.10:_ZNK10libtorrent3aux11socket_type14local_endpointEv
libtorrent-rasterbar.so.10:_ZNK10libtorrent3aux11socket_type15remote_endpointERN5boost6system10error_codeE
libtorrent-rasterbar.so.10:_ZNK10libtorrent3aux11socket_type15remote_endpointEv
libtorrent-rasterbar.so.10:_ZNK10libtorrent3aux11socket_type4typeEv
libtorrent-rasterbar.so.10:_ZNK10libtorrent3aux11socket_type7is_openEv
libtorrent-rasterbar.so.10:_ZNK10libtorrent3aux11socket_type9availableERN5boost6system10error_codeE
libtorrent-rasterbar.so.10:_ZNK10libtorrent3aux11socket_type9availableEv
libtorrent-rasterbar.so.10:_ZNK10libtorrent3aux11socket_type9type_nameEv
libtorrent-rasterbar.so.10:_ZNK10libtorrent3aux12session_impl10rate_limitENS0_14strong_typedefIjNS_14peer_class_tagEvEEi
libtorrent-rasterbar.so.10:_ZNK10libtorrent3aux12session_impl10save_stateEPNS_5entryENS_5flags13bitfield_flagIjNS_20save_state_flags_tagEvEE
libtorrent-rasterbar.so.10:_ZNK10libtorrent3aux12session_impl10should_logENS_3dht10dht_logger8module_tE
libtorrent-rasterbar.so.10:_ZNK10libtorrent3aux12session_impl10should_logEv
libtorrent-rasterbar.so.10:_ZNK10libtorrent3aux12session_impl11listen_portEPNS0_15listen_socket_tE
libtorrent-rasterbar.so.10:_ZNK10libtorrent3aux12session_impl11listen_portEv
libtorrent-rasterbar.so.10:_ZNK10libtorrent3aux12session_impl11log_portmapENS_17portmap_transportEPKc
libtorrent-rasterbar.so.10:_ZNK10libtorrent3aux12session_impl11max_uploadsEv
libtorrent-rasterbar.so.10:_ZNK10libtorrent3aux12session_impl11session_logEPKcz
libtorrent-rasterbar.so.10:_ZNK10libtorrent3aux12session_impl12find_torrentERKNS_8digest32ILl160EEE
libtorrent-rasterbar.so.10:_ZNK10libtorrent3aux12session_impl12find_torrentERKNSt7__cxx1112basic_stringIcSt11char_traitsIcESaIcEEE
libtorrent-rasterbar.so.10:_ZNK10libtorrent3aux12session_impl12get_settingsEv
libtorrent-rasterbar.so.10:_ZNK10libtorrent3aux12session_impl12get_torrentsEv
libtorrent-rasterbar.so.10:_ZNK10libtorrent3aux12session_impl12is_listeningEv
libtorrent-rasterbar.so.10:_ZNK10libtorrent3aux12session_impl14get_cache_infoENS_14torrent_handleEPNS_12cache_statusEi
libtorrent-rasterbar.so.10:_ZNK10libtorrent3aux12session_impl14get_peer_classENS0_14strong_typedefIjNS_14peer_class_tagEvEE
libtorrent-rasterbar.so.10:_ZNK10libtorrent3aux12session_impl14has_connectionEPNS_15peer_connectionE
libtorrent-rasterbar.so.10:_ZNK10libtorrent3aux12session_impl14should_log_lsdEv
libtorrent-rasterbar.so.10:_ZNK10libtorrent3aux12session_impl15find_collectionERKNSt7__cxx1112basic_stringIcSt11char_traitsIcESaIcEEE
libtorrent-rasterbar.so.10:_ZNK10libtorrent3aux12session_impl15get_int_settingEi
libtorrent-rasterbar.so.10:_ZNK10libtorrent3aux12session_impl15get_port_filterEv
libtorrent-rasterbar.so.10:_ZNK10libtorrent3aux12session_impl15max_connectionsEv
libtorrent-rasterbar.so.10:_ZNK10libtorrent3aux12session_impl15ssl_listen_portEPNS0_15listen_socket_tE
libtorrent-rasterbar.so.10:_ZNK10libtorrent3aux12session_impl15ssl_listen_portEv
libtorrent-rasterbar.so.10:_ZNK10libtorrent3aux12session_impl16external_addressEv
libtorrent-rasterbar.so.10:_ZNK10libtorrent3aux12session_impl17external_udp_portERKN5boost4asio2ip7addressE
libtorrent-rasterbar.so.10:_ZNK10libtorrent3aux12session_impl17upload_rate_limitENS0_14strong_typedefIjNS_14peer_class_tagEvEE
libtorrent-rasterbar.so.10:_ZNK10libtorrent3aux12session_impl18get_torrent_statusEPSt6vectorINS_14torrent_statusESaIS3_EERKSt8functionIFbRKS3_EENS_5flags13bitfield_flagIjNS_16status_flags_tagEvEE
libtorrent-rasterbar.so.10:_ZNK10libtorrent3aux12session_impl18preemptive_unchokeEv
libtorrent-rasterbar.so.10:_ZNK10libtorrent3aux12session_impl18should_log_portmapENS_17portmap_transportE
libtorrent-rasterbar.so.10:_ZNK10libtorrent3aux12session_impl19download_rate_limitENS0_14strong_typedefIjNS_14peer_class_tagEvEE
libtorrent-rasterbar.so.10:_ZNK10libtorrent3aux12session_impl20bind_outgoing_socketERNS0_11socket_typeERKN5boost4asio2ip7addressERNS4_6system10error_codeE
libtorrent-rasterbar.so.10:_ZNK10libtorrent3aux12session_impl21get_peer_class_filterEv
libtorrent-rasterbar.so.10:_ZNK10libtorrent3aux12session_impl22deprecated_get_peer_idEv
libtorrent-rasterbar.so.10:_ZNK10libtorrent3aux12session_impl22refresh_torrent_statusEPSt6vectorINS_14torrent_statusESaIS3_EENS_5flags13bitfield_flagIjNS_16status_flags_tagEvEE
libtorrent-rasterbar.so.10:_ZNK10libtorrent3aux12session_impl22upload_rate_limit_deprEv
libtorrent-rasterbar.so.10:_ZNK10libtorrent3aux12session_impl23local_upload_rate_limitEv
libtorrent-rasterbar.so.10:_ZNK10libtorrent3aux12session_impl24download_rate_limit_deprEv
libtorrent-rasterbar.so.10:_ZNK10libtorrent3aux12session_impl24ignore_unchoke_slots_setERKNS_14peer_class_setE
libtorrent-rasterbar.so.10:_ZNK10libtorrent3aux12session_impl25local_download_rate_limitEv
libtorrent-rasterbar.so.10:_ZNK10libtorrent3aux12session_impl33find_disconnect_candidate_torrentEv
libtorrent-rasterbar.so.10:_ZNK10libtorrent3aux12session_impl5proxyEv
libtorrent-rasterbar.so.10:_ZNK10libtorrent3aux12session_impl6statusEv
libtorrent-rasterbar.so.10:_ZNK10libtorrent3aux12session_impl7has_dhtEv
libtorrent-rasterbar.so.10:_ZNK10libtorrent3aux12session_impl7has_lsdEv
libtorrent-rasterbar.so.10:_ZNK10libtorrent3aux12session_impl7log_lsdEPKc
libtorrent-rasterbar.so.10:_ZNK10libtorrent3aux12session_impl9dht_stateEv
libtorrent-rasterbar.so.10:_ZNK10libtorrent3aux12session_impl9i2p_proxyEv
libtorrent-rasterbar.so.10:_ZNK10libtorrent3aux12session_impl9next_portEv
libtorrent-rasterbar.so.10:_ZNK10libtorrent3aux14disk_job_fence11num_blockedEv
libtorrent-rasterbar.so.10:_ZNK10libtorrent3aux14disk_job_fence9has_fenceEv
libtorrent-rasterbar.so.10:_ZNK10libtorrent3aux15listen_socket_t9can_routeERKN5boost4asio2ip7addressE
libtorrent-rasterbar.so.10:_ZNK10libtorrent3aux15stack_allocator3ptrENS0_15allocation_slotE
libtorrent-rasterbar.so.10:_ZNK10libtorrent3aux16session_settings8bulk_getESt8functionIFvRKNS0_30session_settings_single_threadEEE
libtorrent-rasterbar.so.10:_ZNK10libtorrent3aux20listen_socket_handle18get_local_endpointEv
libtorrent-rasterbar.so.10:_ZNK10libtorrent3aux20listen_socket_handle20get_external_addressEv
libtorrent-rasterbar.so.10:_ZNK10libtorrent3aux20listen_socket_handle3getEv
libtorrent-rasterbar.so.10:_ZNK10libtorrent3aux20listen_socket_handle6is_sslEv
libtorrent-rasterbar.so.10:_ZNK10libtorrent3aux20listen_socket_handle9can_routeERKN5boost4asio2ip7addressE
libtorrent-rasterbar.so.10:_ZNK10libtorrent3dht11dht_tracker21update_stats_countersERNS_8countersE
libtorrent-rasterbar.so.10:_ZNK10libtorrent3dht11dht_tracker5stateEv
libtorrent-rasterbar.so.10:_ZNK10libtorrent3dht13routing_table12bucket_limitEi
libtorrent-rasterbar.so.10:_ZNK10libtorrent3dht13routing_table13for_each_nodeESt8functionIFvRKNS0_10node_entryEEES7_
libtorrent-rasterbar.so.10:_ZNK10libtorrent3dht13routing_table15log_node_failedERKNS_8digest32ILl160EEERKNS0_10node_entryE
libtorrent-rasterbar.so.10:_ZNK10libtorrent3dht13routing_table16num_global_nodesEv
libtorrent-rasterbar.so.10:_ZNK10libtorrent3dht13routing_table4sizeEv
libtorrent-rasterbar.so.10:_ZNK10libtorrent3dht13routing_table5depthEv
libtorrent-rasterbar.so.10:_ZNK10libtorrent3dht13routing_table6statusERNS_14session_statusE
libtorrent-rasterbar.so.10:_ZNK10libtorrent3dht13routing_table6statusERSt6vectorINS_18dht_routing_bucketESaIS3_EE
libtorrent-rasterbar.so.10:_ZNK10libtorrent3dht13routing_table7is_fullEi
libtorrent-rasterbar.so.10:_ZNK10libtorrent3dht19traversal_algorithm11log_timeoutERKSt10shared_ptrINS0_8observerEEPKc
libtorrent-rasterbar.so.10:_ZNK10libtorrent3dht19traversal_algorithm4nameEv
libtorrent-rasterbar.so.10:_ZNK10libtorrent3dht4node12lookup_peersERKNS_8digest32ILl160EEERNS_5entryEbbRKN5boost4asio2ip7addressE
libtorrent-rasterbar.so.10:_ZNK10libtorrent3dht4node12verify_tokenEN5boost17basic_string_viewIcSt11char_traitsIcEEERKNS_8digest32ILl160EEERKNS2_4asio2ip14basic_endpointINSC_3udpEEE
libtorrent-rasterbar.so.10:_ZNK10libtorrent3dht4node18get_stats_countersEv
libtorrent-rasterbar.so.10:_ZNK10libtorrent3dht6ip_set6existsERKN5boost4asio2ip7addressE
libtorrent-rasterbar.so.10:_ZNK10libtorrent3dht8observer11target_addrEv
libtorrent-rasterbar.so.10:_ZNK10libtorrent3dht8observer12get_observerEv
libtorrent-rasterbar.so.10:_ZNK10libtorrent3dht8observer9target_epEv
libtorrent-rasterbar.so.10:_ZNK10libtorrent4file7is_openEv
libtorrent-rasterbar.so.10:_ZNK10libtorrent4file8get_sizeERN5boost6system10error_codeE
libtorrent-rasterbar.so.10:_ZNK10libtorrent4upnp10should_logEv
libtorrent-rasterbar.so.10:_ZNK10libtorrent4upnp11get_mappingENS_3aux14strong_typedefIiNS_16port_mapping_tagEvEERN5boost4asio2ip14basic_endpointINS7_3tcpEEERiRNS_16portmap_protocolE
libtorrent-rasterbar.so.10:_ZNK10libtorrent4upnp14lease_durationERKNS0_10rootdeviceE
libtorrent-rasterbar.so.10:_ZNK10libtorrent4upnp3logEPKcz
libtorrent-rasterbar.so.10:_ZNK10libtorrent5alert9timestampEv
libtorrent-rasterbar.so.10:_ZNK10libtorrent5entry12preformattedEv
libtorrent-rasterbar.so.10:_ZNK10libtorrent5entry4dictB5cxx11Ev
libtorrent-rasterbar.so.10:_ZNK10libtorrent5entry4listEv
libtorrent-rasterbar.so.10:_ZNK10libtorrent5entry4typeEv
libtorrent-rasterbar.so.10:_ZNK10libtorrent5entry6stringB5cxx11Ev
libtorrent-rasterbar.so.10:_ZNK10libtorrent5entry7integerEv
libtorrent-rasterbar.so.10:_ZNK10libtorrent5entry8find_keyEN5boost17basic_string_viewIcSt11char_traitsIcEEE
libtorrent-rasterbar.so.10:_ZNK10libtorrent5entry9to_stringB5cxx11Eb
libtorrent-rasterbar.so.10:_ZNK10libtorrent5entryixEN5boost17basic_string_viewIcSt11char_traitsIcEEE
libtorrent-rasterbar.so.10:_ZNK10libtorrent6natpmp10should_logEv
libtorrent-rasterbar.so.10:_ZNK10libtorrent6natpmp11get_mappingENS_3aux14strong_typedefIiNS_16port_mapping_tagEvEERiS5_RNS_16portmap_protocolE
libtorrent-rasterbar.so.10:_ZNK10libtorrent6natpmp11mapping_logEPKcRKNS0_9mapping_tE
libtorrent-rasterbar.so.10:_ZNK10libtorrent6natpmp3logEPKcz
libtorrent-rasterbar.so.10:_ZNK10libtorrent7torrent10bytes_doneERNS_14torrent_statusENS_5flags13bitfield_flagIjNS_16status_flags_tagEvEE
libtorrent-rasterbar.so.10:_ZNK10libtorrent7torrent10bytes_leftEv
libtorrent-rasterbar.so.10:_ZNK10libtorrent7torrent10limit_implEi
libtorrent-rasterbar.so.10:_ZNK10libtorrent7torrent10should_logEv
libtorrent-rasterbar.so.10:_ZNK10libtorrent7torrent10want_peersEv
libtorrent-rasterbar.so.10:_ZNK10libtorrent7torrent11active_timeEv
libtorrent-rasterbar.so.10:_ZNK10libtorrent7torrent11is_finishedEv
libtorrent-rasterbar.so.10:_ZNK10libtorrent7torrent11is_inactiveEv
libtorrent-rasterbar.so.10:_ZNK10libtorrent7torrent11tracker_keyEv
libtorrent-rasterbar.so.10:_ZNK10libtorrent7torrent12seeding_timeEv
libtorrent-rasterbar.so.10:_ZNK10libtorrent7torrent12storage_modeEv
libtorrent-rasterbar.so.10:_ZNK10libtorrent7torrent12upload_limitEv
libtorrent-rasterbar.so.10:_ZNK10libtorrent7torrent13file_priorityENS_3aux14strong_typedefIiNS1_14file_index_tagEvEE
libtorrent-rasterbar.so.10:_ZNK10libtorrent7torrent13finished_timeEv
libtorrent-rasterbar.so.10:_ZNK10libtorrent7torrent13tracker_loginB5cxx11Ev
libtorrent-rasterbar.so.10:_ZNK10libtorrent7torrent14download_limitEv
libtorrent-rasterbar.so.10:_ZNK10libtorrent7torrent14piece_priorityENS_3aux14strong_typedefIiNS1_15piece_index_tagEvEE
libtorrent-rasterbar.so.10:_ZNK10libtorrent7torrent15file_prioritiesEPNS_3aux17container_wrapperINS1_14strong_typedefIhNS_21download_priority_tagEvEENS3_IiNS1_14file_index_tagEvEESt6vectorIS5_SaIS5_EEEE
libtorrent-rasterbar.so.10:_ZNK10libtorrent7torrent15find_introducerERKN5boost4asio2ip14basic_endpointINS3_3tcpEEE
libtorrent-rasterbar.so.10:_ZNK10libtorrent7torrent15num_downloadersEv
libtorrent-rasterbar.so.10:_ZNK10libtorrent7torrent16get_storage_implEv
libtorrent-rasterbar.so.10:_ZNK10libtorrent7torrent16piece_prioritiesEPNS_3aux17container_wrapperINS1_14strong_typedefIhNS_21download_priority_tagEvEENS3_IiNS1_15piece_index_tagEvEESt6vectorIS5_SaIS5_EEEE
libtorrent-rasterbar.so.10:_ZNK10libtorrent7torrent16resolve_filenameB5cxx11ENS_3aux14strong_typedefIiNS1_14file_index_tagEvEE
libtorrent-rasterbar.so.10:_ZNK10libtorrent7torrent16upload_mode_timeEv
libtorrent-rasterbar.so.10:_ZNK10libtorrent7torrent17write_resume_dataENS_5flags13bitfield_flagIhNS_21resume_data_flags_tagEvEERNS_18add_torrent_paramsE
libtorrent-rasterbar.so.10:_ZNK10libtorrent7torrent18get_download_queueEPSt6vectorINS_18partial_piece_infoESaIS2_EE
libtorrent-rasterbar.so.10:_ZNK10libtorrent7torrent18get_full_peer_listEPSt6vectorINS_15peer_list_entryESaIS2_EE
libtorrent-rasterbar.so.10:_ZNK10libtorrent7torrent18is_self_connectionERKNS_8digest32ILl160EEE
libtorrent-rasterbar.so.10:_ZNK10libtorrent7torrent18piece_availabilityERNS_3aux17container_wrapperIiNS1_14strong_typedefIiNS1_15piece_index_tagEvEESt6vectorIiSaIiEEEE
libtorrent-rasterbar.so.10:_ZNK10libtorrent7torrent18should_check_filesEv
libtorrent-rasterbar.so.10:_ZNK10libtorrent7torrent19current_stats_stateEv
libtorrent-rasterbar.so.10:_ZNK10libtorrent7torrent19should_announce_dhtEv
libtorrent-rasterbar.so.10:_ZNK10libtorrent7torrent19want_peers_downloadEv
libtorrent-rasterbar.so.10:_ZNK10libtorrent7torrent19want_peers_finishedEv
libtorrent-rasterbar.so.10:_ZNK10libtorrent7torrent20is_inactive_internalEv
libtorrent-rasterbar.so.10:_ZNK10libtorrent7torrent24find_lowest_ranking_peerEv
libtorrent-rasterbar.so.10:_ZNK10libtorrent7torrent4nameB5cxx11Ev
libtorrent-rasterbar.so.10:_ZNK10libtorrent7torrent5flagsEv
libtorrent-rasterbar.so.10:_ZNK10libtorrent7torrent6alertsEv
libtorrent-rasterbar.so.10:_ZNK10libtorrent7torrent6to_reqERKNS_11piece_blockE
libtorrent-rasterbar.so.10:_ZNK10libtorrent7torrent7is_seedEv
libtorrent-rasterbar.so.10:_ZNK10libtorrent7torrent8priorityEv
libtorrent-rasterbar.so.10:_ZNK10libtorrent7torrent8settingsEv
libtorrent-rasterbar.so.10:_ZNK10libtorrent7torrent9debug_logEPKcz
libtorrent-rasterbar.so.10:_ZNK10libtorrent7torrent9find_peerERKN5boost4asio2ip14basic_endpointINS3_3tcpEEE
libtorrent-rasterbar.so.10:_ZNK10libtorrent7torrent9is_pausedEv
libtorrent-rasterbar.so.10:_ZNK10libtorrent7torrent9num_seedsEv
libtorrent-rasterbar.so.10:_ZNK10libtorrent7torrent9save_pathB5cxx11Ev
libtorrent-rasterbar.so.10:_ZNK10libtorrent7torrent9seed_rankERKNS_3aux16session_settingsE
libtorrent-rasterbar.so.10:_ZNK10libtorrent7torrent9want_tickEv
libtorrent-rasterbar.so.10:_ZNK10libtorrent7torrent9web_seedsB5cxx11ENS_14web_seed_entry6type_tE
libtorrent-rasterbar.so.10:_ZNK10libtorrent8bitfield14find_first_setEv
libtorrent-rasterbar.so.10:_ZNK10libtorrent8bitfield15find_last_clearEv
libtorrent-rasterbar.so.10:_ZNK10libtorrent8bitfield5countEv
libtorrent-rasterbar.so.10:_ZNK10libtorrent8bitfield7all_setEv
libtorrent-rasterbar.so.10:_ZNK10libtorrent8countersixEi
libtorrent-rasterbar.so.10:_ZNK10libtorrent9directory4fileB5cxx11Ev
libtorrent-rasterbar.so.10:_ZNK10libtorrent9file_pool10get_statusENS_3aux14strong_typedefIjNS_19storage_index_tag_tEvEE
libtorrent-rasterbar.so.10:_ZNK10libtorrent9i2p_alert7messageB5cxx11Ev
libtorrent-rasterbar.so.10:_ZNK10libtorrent9ip_filter13export_filterEv
libtorrent-rasterbar.so.10:_ZNK10libtorrent9ip_filter6accessERKN5boost4asio2ip7addressE
libtorrent-rasterbar.so.10:_ZNK10libtorrent9log_alert11log_messageEv
libtorrent-rasterbar.so.10:_ZNK10libtorrent9log_alert3msgEv
libtorrent-rasterbar.so.10:_ZNK10libtorrent9log_alert7messageB5cxx11Ev
libtorrent-rasterbar.so.10:_ZNK10libtorrent9peer_list12compare_peerEPKNS_12torrent_peerES3_RKNS_11external_ipEi
libtorrent-rasterbar.so.10:_ZNK10libtorrent9peer_list18compare_peer_eraseERKNS_12torrent_peerES3_
libtorrent-rasterbar.so.10:_ZNK10libtorrent9peer_list18is_erase_candidateERKNS_12torrent_peerE
libtorrent-rasterbar.so.10:_ZNK10libtorrent9peer_list20is_connect_candidateERKNS_12torrent_peerE
libtorrent-rasterbar.so.10:_ZNK10libtorrent9peer_list24is_force_erase_candidateERKNS_12torrent_peerE
libtorrent-rasterbar.so.10:_ZNK10libtorrent9peer_list24should_erase_immediatelyERKNS_12torrent_peerE
libtorrent-rasterbar.so.10:_ZNK10libtorrent9peer_list8has_peerEPKNS_12torrent_peerE
libtorrent-rasterbar.so.10:_ZNR10libtorrent18disk_buffer_holderaSEOS0_
libtorrent-rasterbar.so.10:_ZNR10libtorrent5entryaSENS_4spanIKcEE
libtorrent-rasterbar.so.10:_ZNR10libtorrent5entryaSEOS0_
libtorrent-rasterbar.so.10:_ZNR10libtorrent5entryaSERKNS_10lazy_entryE
libtorrent-rasterbar.so.10:_ZNR10libtorrent5entryaSERKNS_12bdecode_nodeE
libtorrent-rasterbar.so.10:_ZNR10libtorrent5entryaSERKS0_
libtorrent-rasterbar.so.10:_ZNR10libtorrent5entryaSESt3mapINSt7__cxx1112basic_stringIcSt11char_traitsIcESaIcEEES0_NS_3aux12strview_lessESaISt4pairIKS7_S0_EEE
libtorrent-rasterbar.so.10:_ZNR10libtorrent5entryaSESt6vectorIS0_SaIS0_EE
libtorrent-rasterbar.so.10:_ZNR10libtorrent5entryaSESt6vectorIcSaIcEE
libtorrent-rasterbar.so.10:_ZNR10libtorrent5entryaSEl
libtorrent-rasterbar.so.10:_ZNR10libtorrent6hasheraSERKS0_
libtorrent-rasterbar.so.10:_ZNR10libtorrent9hasher512aSERKS0_
libtorrent-rasterbar.so.10:_ZThn120_N10libtorrent14disk_io_thread14reclaim_blocksENS_4spanINS_3aux21block_cache_referenceEEE
libtorrent-rasterbar.so.10:_ZThn120_N10libtorrent15peer_connection7on_diskEv
libtorrent-rasterbar.so.10:_ZThn128_N10libtorrent15peer_connection10disconnectERKN5boost6system10error_codeENS_11operation_tENS_3aux14strong_typedefIhNS_23disconnect_severity_tagEvEE
libtorrent-rasterbar.so.10:_ZThn128_N10libtorrent15peer_connection18set_holepunch_modeEv
libtorrent-rasterbar.so.10:_ZThn128_N10libtorrent15peer_connection8add_statEll
libtorrent-rasterbar.so.10:_ZThn128_N10libtorrent19web_peer_connection10disconnectERKN5boost6system10error_codeENS_11operation_tENS_3aux14strong_typedefIhNS_23disconnect_severity_tagEvEE
libtorrent-rasterbar.so.10:_ZThn128_N10libtorrent20http_seed_connection10disconnectERKN5boost6system10error_codeENS_11operation_tENS_3aux14strong_typedefIhNS_23disconnect_severity_tagEvEE
libtorrent-rasterbar.so.10:_ZThn128_NK10libtorrent15peer_connection10should_logENS_14peer_log_alert11direction_tE
libtorrent-rasterbar.so.10:_ZThn128_NK10libtorrent15peer_connection13get_peer_infoERNS_9peer_infoE
libtorrent-rasterbar.so.10:_ZThn128_NK10libtorrent15peer_connection8peer_logENS_14peer_log_alert11direction_tEPKcS4_z
libtorrent-rasterbar.so.10:_ZThn144_N10libtorrent7torrent12on_exceptionERKSt9exception
libtorrent-rasterbar.so.10:_ZThn144_N10libtorrent7torrent8on_errorERKN5boost6system10error_codeE
libtorrent-rasterbar.so.10:_ZThn152_N10libtorrent15peer_connection12on_exceptionERKSt9exception
libtorrent-rasterbar.so.10:_ZThn152_N10libtorrent15peer_connection8on_errorERKN5boost6system10error_codeE
libtorrent-rasterbar.so.10:_ZThn16_N10libtorrent3aux12session_impl15on_port_mappingENS0_14strong_typedefIiNS_16port_mapping_tagEvEERKN5boost4asio2ip7addressEiNS_16portmap_protocolERKNS5_6system10error_codeENS_17portmap_transportE
libtorrent-rasterbar.so.10:_ZThn16_NK10libtorrent3aux12session_impl11log_portmapENS_17portmap_transportEPKc
libtorrent-rasterbar.so.10:_ZThn16_NK10libtorrent3aux12session_impl18should_log_portmapENS_17portmap_transportE
libtorrent-rasterbar.so.10:_ZThn24_N10libtorrent3aux12session_impl11on_lsd_peerERKN5boost4asio2ip14basic_endpointINS4_3tcpEEERKNS_8digest32ILl160EEE
libtorrent-rasterbar.so.10:_ZThn24_NK10libtorrent3aux12session_impl14should_log_lsdEv
libtorrent-rasterbar.so.10:_ZThn24_NK10libtorrent3aux12session_impl7log_lsdEPKc
libtorrent-rasterbar.so.10:_ZThn32_N10libtorrent3aux12session_impl12on_exceptionERKSt9exception
libtorrent-rasterbar.so.10:_ZThn32_N10libtorrent3aux12session_impl8on_errorERKN5boost6system10error_codeE
libtorrent-rasterbar.so.10:_ZThn8_N10libtorrent3aux12session_impl10log_packetENS_3dht10dht_logger19message_direction_tENS_4spanIKcEERKN5boost4asio2ip14basic_endpointINSA_3udpEEE
libtorrent-rasterbar.so.10:_ZThn8_N10libtorrent3aux12session_impl14on_dht_requestEN5boost17basic_string_viewIcSt11char_traitsIcEEERKNS_3dht3msgERNS_5entryE
libtorrent-rasterbar.so.10:_ZThn8_N10libtorrent3aux12session_impl15get_listen_portENS0_9transportERKNS0_20listen_socket_handleE
libtorrent-rasterbar.so.10:_ZThn8_N10libtorrent3aux12session_impl18outgoing_get_peersERKNS_8digest32ILl160EEES5_RKN5boost4asio2ip14basic_endpointINS8_3udpEEE
libtorrent-rasterbar.so.10:_ZThn8_N10libtorrent3aux12session_impl20set_external_addressERKNS0_20listen_socket_handleERKN5boost4asio2ip7addressESA_
libtorrent-rasterbar.so.10:_ZThn8_N10libtorrent3aux12session_impl3logENS_3dht10dht_logger8module_tEPKcz
libtorrent-rasterbar.so.10:_ZThn8_N10libtorrent3aux12session_impl8announceERKNS_8digest32ILl160EEERKN5boost4asio2ip7addressEi
libtorrent-rasterbar.so.10:_ZThn8_N10libtorrent3aux12session_impl9get_peersERKNS_8digest32ILl160EEE
libtorrent-rasterbar.so.10:_ZThn8_NK10libtorrent3aux12session_impl10should_logENS_3dht10dht_logger8module_tE
libtorrent-rasterbar.so.10:_ZZN10libtorrent14chained_buffer17init_buffer_entryINS_18disk_buffer_holderEEEvRNS0_8buffer_tET_iENUlPvE_4_FUNES6_
libtorrent-rasterbar.so.10:_ZZN10libtorrent14chained_buffer17init_buffer_entryINS_4spanIcEEEEvRNS0_8buffer_tET_iENUlPvE_4_FUNES7_
libtorrent-rasterbar.so.10:_ZZN10libtorrent14chained_buffer17init_buffer_entryINS_6bufferEEEvRNS0_8buffer_tET_iENUlPvE_4_FUNES6_
